# SymbolsHelper-Confirmed: 2.0.11 amd64
libdtkwidget.so.2 libdtkwidget2 #MINVER#
 _Z20qInitResources_iconsv@Base 2.0.11
 _Z23qCleanupResources_iconsv@Base 2.0.11
 (optional=templinst)_Z27qRegisterNormalizedMetaTypeI5QListI12QPainterPathEEiRK10QByteArrayPT_N9QtPrivate21MetaTypeDefinedHelperIS6_Xaasr12QMetaTypeId2IS6_E7DefinedntsrSB_9IsBuiltInEE11DefinedTypeE@Base 2.0.11
 (optional=templinst)_Z27qRegisterNormalizedMetaTypeI5QListI5QIconEEiRK10QByteArrayPT_N9QtPrivate21MetaTypeDefinedHelperIS6_Xaasr12QMetaTypeId2IS6_E7DefinedntsrSB_9IsBuiltInEE11DefinedTypeE@Base 2.0.11
 (optional=templinst)_Z27qRegisterNormalizedMetaTypeI5QListI7QRegExpEEiRK10QByteArrayPT_N9QtPrivate21MetaTypeDefinedHelperIS6_Xaasr12QMetaTypeId2IS6_E7DefinedntsrSB_9IsBuiltInEE11DefinedTypeE@Base 2.0.11
 (optional=templinst)_Z27qRegisterNormalizedMetaTypeI5QListIP7QWidgetEEiRK10QByteArrayPT_N9QtPrivate21MetaTypeDefinedHelperIS7_Xaasr12QMetaTypeId2IS7_E7DefinedntsrSC_9IsBuiltInEE11DefinedTypeE@Base 2.0.11
 (optional=templinst)_Z27qRegisterNormalizedMetaTypeI5QListIPN3Dtk6Widget15DSimpleListItemEEEiRK10QByteArrayPT_N9QtPrivate21MetaTypeDefinedHelperIS9_Xaasr12QMetaTypeId2IS9_E7DefinedntsrSE_9IsBuiltInEE11DefinedTypeE@Base 2.0.11
 (optional=templinst)_Z27qRegisterNormalizedMetaTypeI5QListIbEEiRK10QByteArrayPT_N9QtPrivate21MetaTypeDefinedHelperIS5_Xaasr12QMetaTypeId2IS5_E7DefinedntsrSA_9IsBuiltInEE11DefinedTypeE@Base 2.0.11
 (optional=templinst)_Z27qRegisterNormalizedMetaTypeI7QVectorIjEEiRK10QByteArrayPT_N9QtPrivate21MetaTypeDefinedHelperIS5_Xaasr12QMetaTypeId2IS5_E7DefinedntsrSA_9IsBuiltInEE11DefinedTypeE@Base 2.0.11
 _Z29qInitResources_dui_theme_darkv@Base 2.0.11
 _Z30qInitResources_dui_theme_lightv@Base 2.0.11
 _Z32qCleanupResources_dui_theme_darkv@Base 2.0.11
 _Z33qCleanupResources_dui_theme_lightv@Base 2.0.11
 _ZGVZN9QtPrivate19ValueTypeIsMetaTypeI5QListI12QPainterPathELb1EE17registerConverterEiE1f@Base 2.0.11
 _ZGVZN9QtPrivate19ValueTypeIsMetaTypeI5QListI5QIconELb1EE17registerConverterEiE1f@Base 2.0.11
 _ZGVZN9QtPrivate19ValueTypeIsMetaTypeI5QListI7QRegExpELb1EE17registerConverterEiE1f@Base 2.0.11
 _ZGVZN9QtPrivate19ValueTypeIsMetaTypeI5QListIP7QWidgetELb1EE17registerConverterEiE1f@Base 2.0.11
 _ZGVZN9QtPrivate19ValueTypeIsMetaTypeI5QListIPN3Dtk6Widget15DSimpleListItemEELb1EE17registerConverterEiE1f@Base 2.0.11
 _ZGVZN9QtPrivate19ValueTypeIsMetaTypeI5QListIbELb1EE17registerConverterEiE1f@Base 2.0.11
 _ZGVZN9QtPrivate19ValueTypeIsMetaTypeI7QVectorIjELb1EE17registerConverterEiE1f@Base 2.0.11
 _ZN10QByteArrayD1Ev@Base 2.0.11
 _ZN10QByteArrayD2Ev@Base 2.0.11
 (optional=templinst)_ZN10QMultiHashIP7QWidgetPKN3Dtk6Widget17DBlurEffectWidgetEED1Ev@Base 2.0.11
 (optional=templinst)_ZN10QMultiHashIP7QWidgetPKN3Dtk6Widget17DBlurEffectWidgetEED2Ev@Base 2.0.11
 _ZN11ButtonGroup10setButtonsERK11QStringList@Base 2.0.11
 _ZN11ButtonGroup11qt_metacallEN11QMetaObject4CallEiPPv@Base 2.0.11
 _ZN11ButtonGroup11qt_metacastEPKc@Base 2.0.11
 _ZN11ButtonGroup13buttonCheckedEi@Base 2.0.11
 _ZN11ButtonGroup16setCheckedButtonEi@Base 2.0.11
 _ZN11ButtonGroup16staticMetaObjectE@Base 2.0.11
 _ZN11ButtonGroupC1EP7QWidget@Base 2.0.11
 _ZN11ButtonGroupC2EP7QWidget@Base 2.0.11
 _ZN11ButtonGroupD0Ev@Base 2.0.11
 _ZN11ButtonGroupD1Ev@Base 2.0.11
 _ZN11ButtonGroupD2Ev@Base 2.0.11
 (optional=templinst)_ZN11DDBusCaller3argI7QStringEES_RKT_@Base 2.0.11
 _ZN11DDBusCallerD1Ev@Base 2.0.11
 _ZN11DDBusCallerD2Ev@Base 2.0.11
 _ZN11QStringListD1Ev@Base 2.0.11
 _ZN11QStringListD2Ev@Base 2.0.11
 _ZN12ContentTitle11qt_metacallEN11QMetaObject4CallEiPPv@Base 2.0.11
 _ZN12ContentTitle11qt_metacastEPKc@Base 2.0.11
 _ZN12ContentTitle16staticMetaObjectE@Base 2.0.11
 _ZN12ContentTitle8setTitleERK7QString@Base 2.0.11
 _ZN12ContentTitleC1EP7QWidget@Base 2.0.11
 _ZN12ContentTitleC2EP7QWidget@Base 2.0.11
 _ZN12ContentTitleD0Ev@Base 2.0.11
 _ZN12ContentTitleD1Ev@Base 2.0.11
 _ZN12ContentTitleD2Ev@Base 2.0.11
 _ZN12DThemeHelper10themeToQssE7QString@Base 2.0.11
 _ZN12DThemeHelper11qt_metacallEN11QMetaObject4CallEiPPv@Base 2.0.11
 _ZN12DThemeHelper11qt_metacastEPKc@Base 2.0.11
 _ZN12DThemeHelper16staticMetaObjectE@Base 2.0.11
 _ZN12DThemeHelper17trimThemeContentsE7QString@Base 2.0.11
 _ZN12DThemeHelperC1EP7QObject@Base 2.0.11
 _ZN12DThemeHelperC2EP7QObject@Base 2.0.11
 _ZN12DThemeHelperD0Ev@Base 2.0.11
 _ZN12DThemeHelperD1Ev@Base 2.0.11
 _ZN12DThemeHelperD2Ev@Base 2.0.11
 (optional=templinst)_ZN12QWeakPointerI7QObjectED1Ev@Base 2.0.11
 (optional=templinst)_ZN12QWeakPointerI7QObjectED2Ev@Base 2.0.11
 (optional=templinst)_ZN12QtConcurrent15RunFunctionTaskIbE3runEv@Base 2.0.11
 (optional=templinst)_ZN12QtConcurrent15RunFunctionTaskIvE3runEv@Base 2.0.11
 (optional=templinst)_ZN12QtConcurrent19RunFunctionTaskBaseIbE3runEv@Base 2.0.11
 (optional=templinst)_ZN12QtConcurrent19RunFunctionTaskBaseIvE3runEv@Base 2.0.11
 (optional=templinst)_ZN12QtConcurrent32StoredMemberFunctionPointerCall0Ib16QSystemSemaphoreE10runFunctorEv@Base 2.0.11
 (optional=templinst)_ZN12QtConcurrent32StoredMemberFunctionPointerCall0Ib16QSystemSemaphoreED0Ev@Base 2.0.11
 (optional=templinst)_ZN12QtConcurrent32StoredMemberFunctionPointerCall0Ib16QSystemSemaphoreED1Ev@Base 2.0.11
 (optional=templinst)_ZN12QtConcurrent32StoredMemberFunctionPointerCall0Ib16QSystemSemaphoreED2Ev@Base 2.0.11
 (optional=templinst)_ZN12QtConcurrent3runIb16QSystemSemaphoreEE7QFutureIT_EPT0_MS5_FS3_vE@Base 2.0.11
 _ZN12ShortcutEdit10paintEventEP11QPaintEvent@Base 2.0.11
 _ZN12ShortcutEdit11qt_metacallEN11QMetaObject4CallEiPPv@Base 2.0.11
 _ZN12ShortcutEdit11qt_metacastEPKc@Base 2.0.11
 _ZN12ShortcutEdit11setShortCutE6QFlagsIN2Qt16KeyboardModifierEENS1_3KeyE@Base 2.0.11
 _ZN12ShortcutEdit11setShortCutERK7QString@Base 2.0.11
 _ZN12ShortcutEdit12focusInEventEP11QFocusEvent@Base 2.0.11
 _ZN12ShortcutEdit13focusOutEventEP11QFocusEvent@Base 2.0.11
 _ZN12ShortcutEdit13keyPressEventEP9QKeyEvent@Base 2.0.11
 _ZN12ShortcutEdit15shortcutChangedE6QFlagsIN2Qt16KeyboardModifierEENS1_3KeyE@Base 2.0.11
 _ZN12ShortcutEdit16staticMetaObjectE@Base 2.0.11
 _ZN12ShortcutEdit21mouseDoubleClickEventEP11QMouseEvent@Base 2.0.11
 _ZN12ShortcutEdit21notifyShortcutChangedE6QFlagsIN2Qt16KeyboardModifierEENS1_3KeyE@Base 2.0.11
 _ZN12ShortcutEdit21shortcutStringChangedERK7QString@Base 2.0.11
 _ZN12ShortcutEditC1EP7QWidget@Base 2.0.11
 _ZN12ShortcutEditC2EP7QWidget@Base 2.0.11
 _ZN12ShortcutEditD0Ev@Base 2.0.11
 _ZN12ShortcutEditD1Ev@Base 2.0.11
 _ZN12ShortcutEditD2Ev@Base 2.0.11
 _ZN13DBusInterface11qt_metacallEN11QMetaObject4CallEiPPv@Base 2.0.11
 _ZN13DBusInterface11qt_metacastEPKc@Base 2.0.11
 _ZN13DBusInterface12NameAcquiredERK7QString@Base 2.0.11
 _ZN13DBusInterface16NameOwnerChangedERK7QStringS2_S2_@Base 2.0.11
 _ZN13DBusInterface16staticMetaObjectE@Base 2.0.11
 _ZN13DBusInterface19__propertyChanged__ERK12QDBusMessage@Base 2.0.11
 _ZN13DBusInterface8NameLostERK7QString@Base 2.0.11
 _ZN13DBusInterfaceC1ERK7QStringS2_RK15QDBusConnectionP7QObject@Base 2.0.11
 _ZN13DBusInterfaceC2ERK7QStringS2_RK15QDBusConnectionP7QObject@Base 2.0.11
 _ZN13DBusInterfaceD0Ev@Base 2.0.11
 _ZN13DBusInterfaceD1Ev@Base 2.0.11
 _ZN13DBusInterfaceD2Ev@Base 2.0.11
 _ZN13DMPRISMonitor11qt_metacallEN11QMetaObject4CallEiPPv@Base 2.0.11
 _ZN13DMPRISMonitor11qt_metacastEPKc@Base 2.0.11
 _ZN13DMPRISMonitor16staticMetaObjectE@Base 2.0.11
 _ZN13DMPRISMonitor18onNameOwnerChangedERK7QStringS2_S2_@Base 2.0.11
 _ZN13DMPRISMonitor4initEv@Base 2.0.11
 _ZN13DMPRISMonitorC1EP7QObject@Base 2.0.11
 _ZN13DMPRISMonitorC2EP7QObject@Base 2.0.11
 _ZN13DMPRISMonitorD0Ev@Base 2.0.11
 _ZN13DMPRISMonitorD1Ev@Base 2.0.11
 _ZN13DMPRISMonitorD2Ev@Base 2.0.11
 _ZN14QTabBarPrivate3TabD1Ev@Base 2.0.11
 _ZN14QTabBarPrivate3TabD2Ev@Base 2.0.11
 _ZN15QStyleOptionTabD1Ev@Base 2.0.11
 _ZN15QStyleOptionTabD2Ev@Base 2.0.11
 (optional=templinst)_ZN16QFutureInterfaceIbED0Ev@Base 2.0.11
 (optional=templinst)_ZN16QFutureInterfaceIbED1Ev@Base 2.0.11
 (optional=templinst)_ZN16QFutureInterfaceIbED2Ev@Base 2.0.11
 (optional=templinst)_ZN16QFutureInterfaceIvED0Ev@Base 2.0.11
 (optional=templinst)_ZN16QFutureInterfaceIvED1Ev@Base 2.0.11
 (optional=templinst)_ZN16QFutureInterfaceIvED2Ev@Base 2.0.11
 (optional=templinst)_ZN17QtMetaTypePrivate13IteratorOwnerIPKjE5equalEPKPvS6_@Base 2.0.11
 (optional=templinst)_ZN17QtMetaTypePrivate13IteratorOwnerIPKjE6assignEPPvPKS4_@Base 2.0.11
 (optional=templinst)_ZN17QtMetaTypePrivate13IteratorOwnerIPKjE7advanceEPPvi@Base 2.0.11
 (optional=templinst)_ZN17QtMetaTypePrivate13IteratorOwnerIPKjE7destroyEPPv@Base 2.0.11
 (optional=templinst)_ZN17QtMetaTypePrivate19IteratorOwnerCommonIN4QMapI7QString8QVariantE14const_iteratorEE5equalEPKPvS9_@Base 2.0.11
 (optional=templinst)_ZN17QtMetaTypePrivate19IteratorOwnerCommonIN4QMapI7QString8QVariantE14const_iteratorEE6assignEPPvPKS7_@Base 2.0.11
 (optional=templinst)_ZN17QtMetaTypePrivate19IteratorOwnerCommonIN4QMapI7QString8QVariantE14const_iteratorEE7destroyEPPv@Base 2.0.11
 (optional=templinst)_ZN17QtMetaTypePrivate19IteratorOwnerCommonIN5QHashI7QString8QVariantE14const_iteratorEE5equalEPKPvS9_@Base 2.0.11
 (optional=templinst)_ZN17QtMetaTypePrivate19IteratorOwnerCommonIN5QHashI7QString8QVariantE14const_iteratorEE6assignEPPvPKS7_@Base 2.0.11
 (optional=templinst)_ZN17QtMetaTypePrivate19IteratorOwnerCommonIN5QHashI7QString8QVariantE14const_iteratorEE7destroyEPPv@Base 2.0.11
 (optional=templinst)_ZN17QtMetaTypePrivate19IteratorOwnerCommonIN5QListI12QPainterPathE14const_iteratorEE5equalEPKPvS8_@Base 2.0.11
 (optional=templinst)_ZN17QtMetaTypePrivate19IteratorOwnerCommonIN5QListI12QPainterPathE14const_iteratorEE6assignEPPvPKS6_@Base 2.0.11
 (optional=templinst)_ZN17QtMetaTypePrivate19IteratorOwnerCommonIN5QListI12QPainterPathE14const_iteratorEE7advanceEPPvi@Base 2.0.11
 (optional=templinst)_ZN17QtMetaTypePrivate19IteratorOwnerCommonIN5QListI12QPainterPathE14const_iteratorEE7destroyEPPv@Base 2.0.11
 (optional=templinst)_ZN17QtMetaTypePrivate19IteratorOwnerCommonIN5QListI5QIconE14const_iteratorEE5equalEPKPvS8_@Base 2.0.11
 (optional=templinst)_ZN17QtMetaTypePrivate19IteratorOwnerCommonIN5QListI5QIconE14const_iteratorEE6assignEPPvPKS6_@Base 2.0.11
 (optional=templinst)_ZN17QtMetaTypePrivate19IteratorOwnerCommonIN5QListI5QIconE14const_iteratorEE7advanceEPPvi@Base 2.0.11
 (optional=templinst)_ZN17QtMetaTypePrivate19IteratorOwnerCommonIN5QListI5QIconE14const_iteratorEE7destroyEPPv@Base 2.0.11
 (optional=templinst)_ZN17QtMetaTypePrivate19IteratorOwnerCommonIN5QListI7QRegExpE14const_iteratorEE5equalEPKPvS8_@Base 2.0.11
 (optional=templinst)_ZN17QtMetaTypePrivate19IteratorOwnerCommonIN5QListI7QRegExpE14const_iteratorEE6assignEPPvPKS6_@Base 2.0.11
 (optional=templinst)_ZN17QtMetaTypePrivate19IteratorOwnerCommonIN5QListI7QRegExpE14const_iteratorEE7advanceEPPvi@Base 2.0.11
 (optional=templinst)_ZN17QtMetaTypePrivate19IteratorOwnerCommonIN5QListI7QRegExpE14const_iteratorEE7destroyEPPv@Base 2.0.11
 (optional=templinst)_ZN17QtMetaTypePrivate19IteratorOwnerCommonIN5QListIP7QWidgetE14const_iteratorEE5equalEPKPvS9_@Base 2.0.11
 (optional=templinst)_ZN17QtMetaTypePrivate19IteratorOwnerCommonIN5QListIP7QWidgetE14const_iteratorEE6assignEPPvPKS7_@Base 2.0.11
 (optional=templinst)_ZN17QtMetaTypePrivate19IteratorOwnerCommonIN5QListIP7QWidgetE14const_iteratorEE7advanceEPPvi@Base 2.0.11
 (optional=templinst)_ZN17QtMetaTypePrivate19IteratorOwnerCommonIN5QListIP7QWidgetE14const_iteratorEE7destroyEPPv@Base 2.0.11
 (optional=templinst)_ZN17QtMetaTypePrivate19IteratorOwnerCommonIN5QListIPN3Dtk6Widget15DSimpleListItemEE14const_iteratorEE5equalEPKPvSB_@Base 2.0.11
 (optional=templinst)_ZN17QtMetaTypePrivate19IteratorOwnerCommonIN5QListIPN3Dtk6Widget15DSimpleListItemEE14const_iteratorEE6assignEPPvPKS9_@Base 2.0.11
 (optional=templinst)_ZN17QtMetaTypePrivate19IteratorOwnerCommonIN5QListIPN3Dtk6Widget15DSimpleListItemEE14const_iteratorEE7advanceEPPvi@Base 2.0.11
 (optional=templinst)_ZN17QtMetaTypePrivate19IteratorOwnerCommonIN5QListIPN3Dtk6Widget15DSimpleListItemEE14const_iteratorEE7destroyEPPv@Base 2.0.11
 (optional=templinst)_ZN17QtMetaTypePrivate19IteratorOwnerCommonIN5QListIbE14const_iteratorEE5equalEPKPvS7_@Base 2.0.11
 (optional=templinst)_ZN17QtMetaTypePrivate19IteratorOwnerCommonIN5QListIbE14const_iteratorEE6assignEPPvPKS5_@Base 2.0.11
 (optional=templinst)_ZN17QtMetaTypePrivate19IteratorOwnerCommonIN5QListIbE14const_iteratorEE7advanceEPPvi@Base 2.0.11
 (optional=templinst)_ZN17QtMetaTypePrivate19IteratorOwnerCommonIN5QListIbE14const_iteratorEE7destroyEPPv@Base 2.0.11
 (optional=templinst)_ZN17QtMetaTypePrivate23QMetaTypeFunctionHelperI12QDBusMessageLb1EE8DestructEPv@Base 2.0.11
 (optional=templinst)_ZN17QtMetaTypePrivate23QMetaTypeFunctionHelperI12QDBusMessageLb1EE9ConstructEPvPKv@Base 2.0.11
 (optional=templinst)_ZN17QtMetaTypePrivate23QMetaTypeFunctionHelperI12QPainterPathLb1EE8DestructEPv@Base 2.0.11
 (optional=templinst)_ZN17QtMetaTypePrivate23QMetaTypeFunctionHelperI12QPainterPathLb1EE9ConstructEPvPKv@Base 2.0.11
 (optional=templinst)_ZN17QtMetaTypePrivate23QMetaTypeFunctionHelperI13QDBusArgumentLb1EE8DestructEPv@Base 2.0.11
 (optional=templinst)_ZN17QtMetaTypePrivate23QMetaTypeFunctionHelperI13QDBusArgumentLb1EE9ConstructEPvPKv@Base 2.0.11
 (optional=templinst)_ZN17QtMetaTypePrivate23QMetaTypeFunctionHelperI15QDBusObjectPathLb1EE8DestructEPv@Base 2.0.11
 (optional=templinst)_ZN17QtMetaTypePrivate23QMetaTypeFunctionHelperI15QDBusObjectPathLb1EE9ConstructEPvPKv@Base 2.0.11
 (optional=templinst)_ZN17QtMetaTypePrivate23QMetaTypeFunctionHelperI5QListI12QPainterPathELb1EE8DestructEPv@Base 2.0.11
 (optional=templinst)_ZN17QtMetaTypePrivate23QMetaTypeFunctionHelperI5QListI12QPainterPathELb1EE9ConstructEPvPKv@Base 2.0.11
 (optional=templinst)_ZN17QtMetaTypePrivate23QMetaTypeFunctionHelperI5QListI5QIconELb1EE8DestructEPv@Base 2.0.11
 (optional=templinst)_ZN17QtMetaTypePrivate23QMetaTypeFunctionHelperI5QListI5QIconELb1EE9ConstructEPvPKv@Base 2.0.11
 (optional=templinst)_ZN17QtMetaTypePrivate23QMetaTypeFunctionHelperI5QListI7QRegExpELb1EE8DestructEPv@Base 2.0.11
 (optional=templinst)_ZN17QtMetaTypePrivate23QMetaTypeFunctionHelperI5QListI7QRegExpELb1EE9ConstructEPvPKv@Base 2.0.11
 (optional=templinst)_ZN17QtMetaTypePrivate23QMetaTypeFunctionHelperI5QListIP7QWidgetELb1EE8DestructEPv@Base 2.0.11
 (optional=templinst)_ZN17QtMetaTypePrivate23QMetaTypeFunctionHelperI5QListIP7QWidgetELb1EE9ConstructEPvPKv@Base 2.0.11
 (optional=templinst)_ZN17QtMetaTypePrivate23QMetaTypeFunctionHelperI5QListIPN3Dtk6Widget15DSimpleListItemEELb1EE8DestructEPv@Base 2.0.11
 (optional=templinst)_ZN17QtMetaTypePrivate23QMetaTypeFunctionHelperI5QListIPN3Dtk6Widget15DSimpleListItemEELb1EE9ConstructEPvPKv@Base 2.0.11
 (optional=templinst)_ZN17QtMetaTypePrivate23QMetaTypeFunctionHelperI5QListIbELb1EE8DestructEPv@Base 2.0.11
 (optional=templinst)_ZN17QtMetaTypePrivate23QMetaTypeFunctionHelperI5QListIbELb1EE9ConstructEPvPKv@Base 2.0.11
 (optional=templinst)_ZN17QtMetaTypePrivate23QMetaTypeFunctionHelperI6QFlagsIN2Qt16KeyboardModifierEELb1EE8DestructEPv@Base 2.0.11
 (optional=templinst)_ZN17QtMetaTypePrivate23QMetaTypeFunctionHelperI6QFlagsIN2Qt16KeyboardModifierEELb1EE9ConstructEPvPKv@Base 2.0.11
 (optional=templinst)_ZN17QtMetaTypePrivate23QMetaTypeFunctionHelperI7QVectorIjELb1EE8DestructEPv@Base 2.0.11
 (optional=templinst)_ZN17QtMetaTypePrivate23QMetaTypeFunctionHelperI7QVectorIjELb1EE9ConstructEPvPKv@Base 2.0.11
 (optional=templinst)_ZN17QtMetaTypePrivate23QMetaTypeFunctionHelperI8QMarginsLb1EE8DestructEPv@Base 2.0.11
 (optional=templinst)_ZN17QtMetaTypePrivate23QMetaTypeFunctionHelperI8QMarginsLb1EE9ConstructEPvPKv@Base 2.0.11
 (optional=templinst)_ZN17QtMetaTypePrivate23QMetaTypeFunctionHelperIN18QAbstractAnimation5StateELb1EE8DestructEPv@Base 2.0.11
 (optional=templinst)_ZN17QtMetaTypePrivate23QMetaTypeFunctionHelperIN18QAbstractAnimation5StateELb1EE9ConstructEPvPKv@Base 2.0.11
 (optional=templinst)_ZN17QtMetaTypePrivate23QMetaTypeFunctionHelperIN2Qt10DropActionELb1EE8DestructEPv@Base 2.0.11
 (optional=templinst)_ZN17QtMetaTypePrivate23QMetaTypeFunctionHelperIN2Qt10DropActionELb1EE9ConstructEPvPKv@Base 2.0.11
 (optional=templinst)_ZN17QtMetaTypePrivate23QMetaTypeFunctionHelperIN2Qt3KeyELb1EE8DestructEPv@Base 2.0.11
 (optional=templinst)_ZN17QtMetaTypePrivate23QMetaTypeFunctionHelperIN2Qt3KeyELb1EE9ConstructEPvPKv@Base 2.0.11
 (optional=templinst)_ZN17QtMetaTypePrivate23QMetaTypeFunctionHelperINS_23QSequentialIterableImplELb1EE8DestructEPv@Base 2.0.11
 (optional=templinst)_ZN17QtMetaTypePrivate23QMetaTypeFunctionHelperINS_23QSequentialIterableImplELb1EE9ConstructEPvPKv@Base 2.0.11
 (optional=templinst)_ZN17QtMetaTypePrivate23QMetaTypeFunctionHelperINS_24QAssociativeIterableImplELb1EE8DestructEPv@Base 2.0.11
 (optional=templinst)_ZN17QtMetaTypePrivate23QMetaTypeFunctionHelperINS_24QAssociativeIterableImplELb1EE9ConstructEPvPKv@Base 2.0.11
 (optional=templinst)_ZN17QtMetaTypePrivate23QMetaTypeFunctionHelperIP7QWidgetLb1EE8DestructEPv@Base 2.0.11
 (optional=templinst)_ZN17QtMetaTypePrivate23QMetaTypeFunctionHelperIP7QWidgetLb1EE9ConstructEPvPKv@Base 2.0.11
 (optional=templinst)_ZN17QtMetaTypePrivate23QMetaTypeFunctionHelperIP7QWindowLb1EE8DestructEPv@Base 2.0.11
 (optional=templinst)_ZN17QtMetaTypePrivate23QMetaTypeFunctionHelperIP7QWindowLb1EE9ConstructEPvPKv@Base 2.0.11
 (optional=templinst)_ZN17QtMetaTypePrivate23QMetaTypeFunctionHelperIPN3Dtk4Core9DSettingsELb1EE8DestructEPv@Base 2.0.11
 (optional=templinst)_ZN17QtMetaTypePrivate23QMetaTypeFunctionHelperIPN3Dtk4Core9DSettingsELb1EE9ConstructEPvPKv@Base 2.0.11
 (optional=templinst)_ZN17QtMetaTypePrivate23QMetaTypeFunctionHelperIPN3Dtk6Widget12DAnchorsBaseELb1EE8DestructEPv@Base 2.0.11
 (optional=templinst)_ZN17QtMetaTypePrivate23QMetaTypeFunctionHelperIPN3Dtk6Widget12DAnchorsBaseELb1EE9ConstructEPvPKv@Base 2.0.11
 (optional=templinst)_ZN17QtMetaTypePrivate23QMetaTypeFunctionHelperIPN3Dtk6Widget15DSimpleListItemELb1EE8DestructEPv@Base 2.0.11
 (optional=templinst)_ZN17QtMetaTypePrivate23QMetaTypeFunctionHelperIPN3Dtk6Widget15DSimpleListItemELb1EE9ConstructEPvPKv@Base 2.0.11
 (optional=templinst)_ZN17QtMetaTypePrivate23QSequentialIterableImpl13moveToEndImplI5QListI12QPainterPathEEEvPKvPPv@Base 2.0.11
 (optional=templinst)_ZN17QtMetaTypePrivate23QSequentialIterableImpl13moveToEndImplI5QListI5QIconEEEvPKvPPv@Base 2.0.11
 (optional=templinst)_ZN17QtMetaTypePrivate23QSequentialIterableImpl13moveToEndImplI5QListI7QRegExpEEEvPKvPPv@Base 2.0.11
 (optional=templinst)_ZN17QtMetaTypePrivate23QSequentialIterableImpl13moveToEndImplI5QListIP7QWidgetEEEvPKvPPv@Base 2.0.11
 (optional=templinst)_ZN17QtMetaTypePrivate23QSequentialIterableImpl13moveToEndImplI5QListIPN3Dtk6Widget15DSimpleListItemEEEEvPKvPPv@Base 2.0.11
 (optional=templinst)_ZN17QtMetaTypePrivate23QSequentialIterableImpl13moveToEndImplI5QListIbEEEvPKvPPv@Base 2.0.11
 (optional=templinst)_ZN17QtMetaTypePrivate23QSequentialIterableImpl13moveToEndImplI7QVectorIjEEEvPKvPPv@Base 2.0.11
 (optional=templinst)_ZN17QtMetaTypePrivate23QSequentialIterableImpl15moveToBeginImplI5QListI12QPainterPathEEEvPKvPPv@Base 2.0.11
 (optional=templinst)_ZN17QtMetaTypePrivate23QSequentialIterableImpl15moveToBeginImplI5QListI5QIconEEEvPKvPPv@Base 2.0.11
 (optional=templinst)_ZN17QtMetaTypePrivate23QSequentialIterableImpl15moveToBeginImplI5QListI7QRegExpEEEvPKvPPv@Base 2.0.11
 (optional=templinst)_ZN17QtMetaTypePrivate23QSequentialIterableImpl15moveToBeginImplI5QListIP7QWidgetEEEvPKvPPv@Base 2.0.11
 (optional=templinst)_ZN17QtMetaTypePrivate23QSequentialIterableImpl15moveToBeginImplI5QListIPN3Dtk6Widget15DSimpleListItemEEEEvPKvPPv@Base 2.0.11
 (optional=templinst)_ZN17QtMetaTypePrivate23QSequentialIterableImpl15moveToBeginImplI5QListIbEEEvPKvPPv@Base 2.0.11
 (optional=templinst)_ZN17QtMetaTypePrivate23QSequentialIterableImpl15moveToBeginImplI7QVectorIjEEEvPKvPPv@Base 2.0.11
 (optional=templinst)_ZN17QtMetaTypePrivate23QSequentialIterableImpl6atImplI5QListI12QPainterPathEEEPKvS6_i@Base 2.0.11
 (optional=templinst)_ZN17QtMetaTypePrivate23QSequentialIterableImpl6atImplI5QListI5QIconEEEPKvS6_i@Base 2.0.11
 (optional=templinst)_ZN17QtMetaTypePrivate23QSequentialIterableImpl6atImplI5QListI7QRegExpEEEPKvS6_i@Base 2.0.11
 (optional=templinst)_ZN17QtMetaTypePrivate23QSequentialIterableImpl6atImplI5QListIP7QWidgetEEEPKvS7_i@Base 2.0.11
 (optional=templinst)_ZN17QtMetaTypePrivate23QSequentialIterableImpl6atImplI5QListIPN3Dtk6Widget15DSimpleListItemEEEEPKvS9_i@Base 2.0.11
 (optional=templinst)_ZN17QtMetaTypePrivate23QSequentialIterableImpl6atImplI5QListIbEEEPKvS5_i@Base 2.0.11
 (optional=templinst)_ZN17QtMetaTypePrivate23QSequentialIterableImpl6atImplI7QVectorIjEEEPKvS5_i@Base 2.0.11
 (optional=templinst)_ZN17QtMetaTypePrivate23QSequentialIterableImpl7getImplI5QListI12QPainterPathEEENS_11VariantDataEPKPvij@Base 2.0.11
 (optional=templinst)_ZN17QtMetaTypePrivate23QSequentialIterableImpl7getImplI5QListI5QIconEEENS_11VariantDataEPKPvij@Base 2.0.11
 (optional=templinst)_ZN17QtMetaTypePrivate23QSequentialIterableImpl7getImplI5QListI7QRegExpEEENS_11VariantDataEPKPvij@Base 2.0.11
 (optional=templinst)_ZN17QtMetaTypePrivate23QSequentialIterableImpl7getImplI5QListIP7QWidgetEEENS_11VariantDataEPKPvij@Base 2.0.11
 (optional=templinst)_ZN17QtMetaTypePrivate23QSequentialIterableImpl7getImplI5QListIPN3Dtk6Widget15DSimpleListItemEEEENS_11VariantDataEPKPvij@Base 2.0.11
 (optional=templinst)_ZN17QtMetaTypePrivate23QSequentialIterableImpl7getImplI5QListIbEEENS_11VariantDataEPKPvij@Base 2.0.11
 (optional=templinst)_ZN17QtMetaTypePrivate23QSequentialIterableImpl7getImplI7QVectorIjEEENS_11VariantDataEPKPvij@Base 2.0.11
 (optional=templinst)_ZN17QtMetaTypePrivate23QSequentialIterableImpl8sizeImplI5QListI12QPainterPathEEEiPKv@Base 2.0.11
 (optional=templinst)_ZN17QtMetaTypePrivate23QSequentialIterableImpl8sizeImplI5QListI5QIconEEEiPKv@Base 2.0.11
 (optional=templinst)_ZN17QtMetaTypePrivate23QSequentialIterableImpl8sizeImplI5QListI7QRegExpEEEiPKv@Base 2.0.11
 (optional=templinst)_ZN17QtMetaTypePrivate23QSequentialIterableImpl8sizeImplI5QListIP7QWidgetEEEiPKv@Base 2.0.11
 (optional=templinst)_ZN17QtMetaTypePrivate23QSequentialIterableImpl8sizeImplI5QListIPN3Dtk6Widget15DSimpleListItemEEEEiPKv@Base 2.0.11
 (optional=templinst)_ZN17QtMetaTypePrivate23QSequentialIterableImpl8sizeImplI5QListIbEEEiPKv@Base 2.0.11
 (optional=templinst)_ZN17QtMetaTypePrivate23QSequentialIterableImpl8sizeImplI7QVectorIjEEEiPKv@Base 2.0.11
 (optional=templinst)_ZN17QtMetaTypePrivate24QAssociativeIterableImpl10getKeyImplI4QMapI7QString8QVariantEEENS_11VariantDataEPKPvij@Base 2.0.11
 (optional=templinst)_ZN17QtMetaTypePrivate24QAssociativeIterableImpl10getKeyImplI5QHashI7QString8QVariantEEENS_11VariantDataEPKPvij@Base 2.0.11
 (optional=templinst)_ZN17QtMetaTypePrivate24QAssociativeIterableImpl11advanceImplI4QMapI7QString8QVariantEEEvPPvi@Base 2.0.11
 (optional=templinst)_ZN17QtMetaTypePrivate24QAssociativeIterableImpl11advanceImplI5QHashI7QString8QVariantEEEvPPvi@Base 2.0.11
 (optional=templinst)_ZN17QtMetaTypePrivate24QAssociativeIterableImpl12getValueImplI4QMapI7QString8QVariantEEENS_11VariantDataEPKPvij@Base 2.0.11
 (optional=templinst)_ZN17QtMetaTypePrivate24QAssociativeIterableImpl12getValueImplI5QHashI7QString8QVariantEEENS_11VariantDataEPKPvij@Base 2.0.11
 (optional=templinst)_ZN17QtMetaTypePrivate24QAssociativeIterableImpl7endImplI4QMapI7QString8QVariantEEEvPKvPPv@Base 2.0.11
 (optional=templinst)_ZN17QtMetaTypePrivate24QAssociativeIterableImpl7endImplI5QHashI7QString8QVariantEEEvPKvPPv@Base 2.0.11
 (optional=templinst)_ZN17QtMetaTypePrivate24QAssociativeIterableImpl8findImplI4QMapI7QString8QVariantEEEvPKvS7_PPv@Base 2.0.11
 (optional=templinst)_ZN17QtMetaTypePrivate24QAssociativeIterableImpl8findImplI5QHashI7QString8QVariantEEEvPKvS7_PPv@Base 2.0.11
 (optional=templinst)_ZN17QtMetaTypePrivate24QAssociativeIterableImpl8sizeImplI4QMapI7QString8QVariantEEEiPKv@Base 2.0.11
 (optional=templinst)_ZN17QtMetaTypePrivate24QAssociativeIterableImpl8sizeImplI5QHashI7QString8QVariantEEEiPKv@Base 2.0.11
 (optional=templinst)_ZN17QtMetaTypePrivate24QAssociativeIterableImpl9beginImplI4QMapI7QString8QVariantEEEvPKvPPv@Base 2.0.11
 (optional=templinst)_ZN17QtMetaTypePrivate24QAssociativeIterableImpl9beginImplI5QHashI7QString8QVariantEEEvPKvPPv@Base 2.0.11
 _ZN18NavigationDelegate11qt_metacallEN11QMetaObject4CallEiPPv@Base 2.0.11
 _ZN18NavigationDelegate11qt_metacastEPKc@Base 2.0.11
 _ZN18NavigationDelegate16staticMetaObjectE@Base 2.0.11
 _ZN18NavigationDelegateC1EP7QWidget@Base 2.0.11
 _ZN18NavigationDelegateC2EP7QWidget@Base 2.0.11
 _ZN18NavigationDelegateD0Ev@Base 2.0.11
 _ZN18NavigationDelegateD1Ev@Base 2.0.11
 _ZN18NavigationDelegateD2Ev@Base 2.0.11
 (optional=templinst)_ZN18QMetaTypeIdQObjectIP7QWidgetLi8EE14qt_metatype_idEv@Base 2.0.11
 _ZN18QStyleOptionButtonD1Ev@Base 2.0.11
 _ZN18QStyleOptionButtonD2Ev@Base 2.0.11
 (optional=templinst)_ZN21QScopedPointerDeleterIN3Dtk6Widget14ContentPrivateEE7cleanupEPS2_@Base 2.0.11
 _ZN22QStyleOptionToolButtonD1Ev@Base 2.0.11
 _ZN22QStyleOptionToolButtonD2Ev@Base 2.0.11
 _ZN26StartupNotificationMonitor10appStartupE7QString@Base 2.0.11
 _ZN26StartupNotificationMonitor11qt_metacallEN11QMetaObject4CallEiPPv@Base 2.0.11
 _ZN26StartupNotificationMonitor11qt_metacastEPKc@Base 2.0.11
 _ZN26StartupNotificationMonitor16staticMetaObjectE@Base 2.0.11
 _ZN26StartupNotificationMonitor17nativeEventFilterERK10QByteArrayPvPl@Base 2.0.11
 _ZN26StartupNotificationMonitor19appStartupCompletedE7QString@Base 2.0.11
 _ZN26StartupNotificationMonitor8instanceEv@Base 2.0.11
 _ZN26StartupNotificationMonitorC1Ev@Base 2.0.11
 _ZN26StartupNotificationMonitorC2Ev@Base 2.0.11
 _ZN26StartupNotificationMonitorD0Ev@Base 2.0.11
 _ZN26StartupNotificationMonitorD1Ev@Base 2.0.11
 _ZN26StartupNotificationMonitorD2Ev@Base 2.0.11
 (optional=templinst)_ZN28QExplicitlySharedDataPointerI11QSharedDataED1Ev@Base 2.0.11
 (optional=templinst)_ZN28QExplicitlySharedDataPointerI11QSharedDataED2Ev@Base 2.0.11
 _ZN29StartupNotificationMonitorSubD0Ev@Base 2.0.11
 _ZN29StartupNotificationMonitorSubD1Ev@Base 2.0.11
 _ZN29StartupNotificationMonitorSubD2Ev@Base 2.0.11
 _ZN3Dtk6Widget10DBoxWidget10updateSizeERK5QSize@Base 2.0.11
 _ZN3Dtk6Widget10DBoxWidget11qt_metacallEN11QMetaObject4CallEiPPv@Base 2.0.11
 _ZN3Dtk6Widget10DBoxWidget11qt_metacastEPKc@Base 2.0.11
 _ZN3Dtk6Widget10DBoxWidget11sizeChangedE5QSize@Base 2.0.11
 _ZN3Dtk6Widget10DBoxWidget12setDirectionEN10QBoxLayout9DirectionE@Base 2.0.11
 _ZN3Dtk6Widget10DBoxWidget16directionChangedEN10QBoxLayout9DirectionE@Base 2.0.11
 _ZN3Dtk6Widget10DBoxWidget16staticMetaObjectE@Base 2.0.11
 _ZN3Dtk6Widget10DBoxWidget5eventEP6QEvent@Base 2.0.11
 _ZN3Dtk6Widget10DBoxWidget9addWidgetEP7QWidget@Base 2.0.11
 _ZN3Dtk6Widget10DBoxWidgetC1EN10QBoxLayout9DirectionEP7QWidget@Base 2.0.11
 _ZN3Dtk6Widget10DBoxWidgetC2EN10QBoxLayout9DirectionEP7QWidget@Base 2.0.11
 _ZN3Dtk6Widget10DBoxWidgetD0Ev@Base 2.0.11
 _ZN3Dtk6Widget10DBoxWidgetD1Ev@Base 2.0.11
 _ZN3Dtk6Widget10DBoxWidgetD2Ev@Base 2.0.11
 _ZN3Dtk6Widget10DCrumbEdit10crumbAddedERK7QString@Base 2.0.11
 _ZN3Dtk6Widget10DCrumbEdit10paintEventEP11QPaintEvent@Base 2.0.11
 _ZN3Dtk6Widget10DCrumbEdit11appendCrumbERK7QString@Base 2.0.11
 _ZN3Dtk6Widget10DCrumbEdit11appendCrumbERKNS0_16DCrumbTextFormatE@Base 2.0.11
 _ZN3Dtk6Widget10DCrumbEdit11insertCrumbERK7QStringi@Base 2.0.11
 _ZN3Dtk6Widget10DCrumbEdit11insertCrumbERKNS0_16DCrumbTextFormatEi@Base 2.0.11
 _ZN3Dtk6Widget10DCrumbEdit11qt_metacallEN11QMetaObject4CallEiPPv@Base 2.0.11
 _ZN3Dtk6Widget10DCrumbEdit11qt_metacastEPKc@Base 2.0.11
 _ZN3Dtk6Widget10DCrumbEdit11setSplitterERK7QString@Base 2.0.11
 _ZN3Dtk6Widget10DCrumbEdit12crumbRemovedERK7QString@Base 2.0.11
 _ZN3Dtk6Widget10DCrumbEdit13focusOutEventEP11QFocusEvent@Base 2.0.11
 _ZN3Dtk6Widget10DCrumbEdit13keyPressEventEP9QKeyEvent@Base 2.0.11
 _ZN3Dtk6Widget10DCrumbEdit14setCrumbRadiusEi@Base 2.0.11
 _ZN3Dtk6Widget10DCrumbEdit16crumbListChangedEv@Base 2.0.11
 _ZN3Dtk6Widget10DCrumbEdit16setCrumbReadOnlyEb@Base 2.0.11
 _ZN3Dtk6Widget10DCrumbEdit16staticMetaObjectE@Base 2.0.11
 _ZN3Dtk6Widget10DCrumbEdit18insertFromMimeDataEPK9QMimeData@Base 2.0.11
 _ZN3Dtk6Widget10DCrumbEdit21mouseDoubleClickEventEP11QMouseEvent@Base 2.0.11
 _ZN3Dtk6Widget10DCrumbEdit21setDualClickMakeCrumbEb@Base 2.0.11
 _ZN3Dtk6Widget10DCrumbEditC1EP7QWidget@Base 2.0.11
 _ZN3Dtk6Widget10DCrumbEditC2EP7QWidget@Base 2.0.11
 _ZN3Dtk6Widget10DCrumbEditD0Ev@Base 2.0.11
 _ZN3Dtk6Widget10DCrumbEditD1Ev@Base 2.0.11
 _ZN3Dtk6Widget10DCrumbEditD2Ev@Base 2.0.11
 _ZN3Dtk6Widget10DScrollBar10enterEventEP6QEvent@Base 2.0.11
 _ZN3Dtk6Widget10DScrollBar10leaveEventEP6QEvent@Base 2.0.11
 _ZN3Dtk6Widget10DScrollBar10paintEventEP11QPaintEvent@Base 2.0.11
 _ZN3Dtk6Widget10DScrollBar11qt_metacallEN11QMetaObject4CallEiPPv@Base 2.0.11
 _ZN3Dtk6Widget10DScrollBar11qt_metacastEPKc@Base 2.0.11
 _ZN3Dtk6Widget10DScrollBar11setAutoHideEb@Base 2.0.11
 _ZN3Dtk6Widget10DScrollBar15autoHideChangedEb@Base 2.0.11
 _ZN3Dtk6Widget10DScrollBar16staticMetaObjectE@Base 2.0.11
 _ZN3Dtk6Widget10DScrollBarC1EP7QWidget@Base 2.0.11
 _ZN3Dtk6Widget10DScrollBarC2EP7QWidget@Base 2.0.11
 _ZN3Dtk6Widget10DScrollBarD0Ev@Base 2.0.11
 _ZN3Dtk6Widget10DScrollBarD1Ev@Base 2.0.11
 _ZN3Dtk6Widget10DScrollBarD2Ev@Base 2.0.11
 _ZN3Dtk6Widget10LoadSlider10paintEventEP11QPaintEvent@Base 2.0.11
 _ZN3Dtk6Widget10LoadSlider18setLoadSliderColorERK6QColor@Base 2.0.11
 _ZN3Dtk6Widget10LoadSliderC1EP7QWidget@Base 2.0.11
 _ZN3Dtk6Widget10LoadSliderC2EP7QWidget@Base 2.0.11
 _ZN3Dtk6Widget10LoadSliderD0Ev@Base 2.0.11
 _ZN3Dtk6Widget10LoadSliderD1Ev@Base 2.0.11
 _ZN3Dtk6Widget10LoadSliderD2Ev@Base 2.0.11
 _ZN3Dtk6Widget10Navigation11qt_metacallEN11QMetaObject4CallEiPPv@Base 2.0.11
 _ZN3Dtk6Widget10Navigation11qt_metacastEPKc@Base 2.0.11
 _ZN3Dtk6Widget10Navigation13onSelectGroupERK7QString@Base 2.0.11
 _ZN3Dtk6Widget10Navigation13selectedGroupERK7QString@Base 2.0.11
 _ZN3Dtk6Widget10Navigation14updateSettingsERK10QByteArray8QPointerINS_4Core9DSettingsEE@Base 2.0.11
 _ZN3Dtk6Widget10Navigation16staticMetaObjectE@Base 2.0.11
 _ZN3Dtk6Widget10NavigationC1EP7QWidget@Base 2.0.11
 _ZN3Dtk6Widget10NavigationC2EP7QWidget@Base 2.0.11
 _ZN3Dtk6Widget10NavigationD0Ev@Base 2.0.11
 _ZN3Dtk6Widget10NavigationD1Ev@Base 2.0.11
 _ZN3Dtk6Widget10NavigationD2Ev@Base 2.0.11
 _ZN3Dtk6Widget10dropShadowERK7QPixmapdRK6QColor@Base 2.0.11
 _ZN3Dtk6Widget11DBaseButton11qt_metacallEN11QMetaObject4CallEiPPv@Base 2.0.11
 _ZN3Dtk6Widget11DBaseButton11qt_metacastEPKc@Base 2.0.11
 _ZN3Dtk6Widget11DBaseButton15initInsideFrameEv@Base 2.0.11
 _ZN3Dtk6Widget11DBaseButton16staticMetaObjectE@Base 2.0.11
 _ZN3Dtk6Widget11DBaseButtonC1EP7QWidget@Base 2.0.11
 _ZN3Dtk6Widget11DBaseButtonC1ERK5QIconRK7QStringP7QWidget@Base 2.0.11
 _ZN3Dtk6Widget11DBaseButtonC1ERK7QStringP7QWidget@Base 2.0.11
 _ZN3Dtk6Widget11DBaseButtonC2EP7QWidget@Base 2.0.11
 _ZN3Dtk6Widget11DBaseButtonC2ERK5QIconRK7QStringP7QWidget@Base 2.0.11
 _ZN3Dtk6Widget11DBaseButtonC2ERK7QStringP7QWidget@Base 2.0.11
 _ZN3Dtk6Widget11DBaseButtonD0Ev@Base 2.0.11
 _ZN3Dtk6Widget11DBaseButtonD1Ev@Base 2.0.11
 _ZN3Dtk6Widget11DBaseButtonD2Ev@Base 2.0.11
 _ZN3Dtk6Widget11DBaseExpand10setContentEP7QWidget6QFlagsIN2Qt13AlignmentFlagEE@Base 2.0.11
 _ZN3Dtk6Widget11DBaseExpand11qt_metacallEN11QMetaObject4CallEiPPv@Base 2.0.11
 _ZN3Dtk6Widget11DBaseExpand11qt_metacastEPKc@Base 2.0.11
 _ZN3Dtk6Widget11DBaseExpand11resizeEventEP12QResizeEvent@Base 2.0.11
 _ZN3Dtk6Widget11DBaseExpand11sizeChangedE5QSize@Base 2.0.11
 _ZN3Dtk6Widget11DBaseExpand12expandChangeEb@Base 2.0.11
 _ZN3Dtk6Widget11DBaseExpand15setHeaderHeightEi@Base 2.0.11
 _ZN3Dtk6Widget11DBaseExpand16staticMetaObjectE@Base 2.0.11
 _ZN3Dtk6Widget11DBaseExpand19setSeparatorVisibleEb@Base 2.0.11
 _ZN3Dtk6Widget11DBaseExpand20setAnimationDurationEi@Base 2.0.11
 _ZN3Dtk6Widget11DBaseExpand23setAnimationEasingCurveE12QEasingCurve@Base 2.0.11
 _ZN3Dtk6Widget11DBaseExpand27setExpandedSeparatorVisibleEb@Base 2.0.11
 _ZN3Dtk6Widget11DBaseExpand9setExpandEb@Base 2.0.11
 _ZN3Dtk6Widget11DBaseExpand9setHeaderEP7QWidget@Base 2.0.11
 _ZN3Dtk6Widget11DBaseExpandC1EP7QWidget@Base 2.0.11
 _ZN3Dtk6Widget11DBaseExpandC2EP7QWidget@Base 2.0.11
 _ZN3Dtk6Widget11DBaseExpandD0Ev@Base 2.0.11
 _ZN3Dtk6Widget11DBaseExpandD1Ev@Base 2.0.11
 _ZN3Dtk6Widget11DBaseExpandD2Ev@Base 2.0.11
 _ZN3Dtk6Widget11DButtonList10addButtonsERK11QStringList@Base 2.0.11
 _ZN3Dtk6Widget11DButtonList11initConnectEv@Base 2.0.11
 _ZN3Dtk6Widget11DButtonList11initMarginsEiii@Base 2.0.11
 _ZN3Dtk6Widget11DButtonList11qt_metacallEN11QMetaObject4CallEiPPv@Base 2.0.11
 _ZN3Dtk6Widget11DButtonList11qt_metacastEPKc@Base 2.0.11
 _ZN3Dtk6Widget11DButtonList11setItemSizeE5QSize@Base 2.0.11
 _ZN3Dtk6Widget11DButtonList11setItemSizeEii@Base 2.0.11
 _ZN3Dtk6Widget11DButtonList12setItemWidthEi@Base 2.0.11
 _ZN3Dtk6Widget11DButtonList13buttonCheckedE7QString@Base 2.0.11
 _ZN3Dtk6Widget11DButtonList13setItemHeightEi@Base 2.0.11
 _ZN3Dtk6Widget11DButtonList16getButtonByIndexEi@Base 2.0.11
 _ZN3Dtk6Widget11DButtonList16setButtonCheckedEi@Base 2.0.11
 _ZN3Dtk6Widget11DButtonList16staticMetaObjectE@Base 2.0.11
 _ZN3Dtk6Widget11DButtonList17buttonMouseLeavedE7QString@Base 2.0.11
 _ZN3Dtk6Widget11DButtonList18buttonMouseEnteredE7QString@Base 2.0.11
 _ZN3Dtk6Widget11DButtonList18checkButtonByIndexEi@Base 2.0.11
 _ZN3Dtk6Widget11DButtonList25buttonCheckedIndexChangedEi@Base 2.0.11
 _ZN3Dtk6Widget11DButtonList5clearEv@Base 2.0.11
 _ZN3Dtk6Widget11DButtonList9addButtonERK7QString@Base 2.0.11
 _ZN3Dtk6Widget11DButtonList9addButtonERK7QStringi@Base 2.0.11
 _ZN3Dtk6Widget11DButtonListC1EP7QWidget@Base 2.0.11
 _ZN3Dtk6Widget11DButtonListC2EP7QWidget@Base 2.0.11
 _ZN3Dtk6Widget11DButtonListD0Ev@Base 2.0.11
 _ZN3Dtk6Widget11DButtonListD1Ev@Base 2.0.11
 _ZN3Dtk6Widget11DButtonListD2Ev@Base 2.0.11
 _ZN3Dtk6Widget11DFileDialog10setVisibleEb@Base 2.0.11
 _ZN3Dtk6Widget11DFileDialog11addComboBoxERK7QStringRK11QStringList@Base 2.0.11
 _ZN3Dtk6Widget11DFileDialog11addComboBoxERK7QStringRKNS1_16DComboBoxOptionsE@Base 2.0.11
 _ZN3Dtk6Widget11DFileDialog11addLineEditERK7QString@Base 2.0.11
 _ZN3Dtk6Widget11DFileDialog11addLineEditERK7QStringRKNS1_16DLineEditOptionsE@Base 2.0.11
 _ZN3Dtk6Widget11DFileDialog11qt_metacallEN11QMetaObject4CallEiPPv@Base 2.0.11
 _ZN3Dtk6Widget11DFileDialog11qt_metacastEPKc@Base 2.0.11
 _ZN3Dtk6Widget11DFileDialog16staticMetaObjectE@Base 2.0.11
 _ZN3Dtk6Widget11DFileDialogC1EP7QWidget6QFlagsIN2Qt10WindowTypeEE@Base 2.0.11
 _ZN3Dtk6Widget11DFileDialogC1EP7QWidgetRK7QStringS6_S6_@Base 2.0.11
 _ZN3Dtk6Widget11DFileDialogC2EP7QWidget6QFlagsIN2Qt10WindowTypeEE@Base 2.0.11
 _ZN3Dtk6Widget11DFileDialogC2EP7QWidgetRK7QStringS6_S6_@Base 2.0.11
 _ZN3Dtk6Widget11DFileDialogD0Ev@Base 2.0.11
 _ZN3Dtk6Widget11DFileDialogD1Ev@Base 2.0.11
 _ZN3Dtk6Widget11DFileDialogD2Ev@Base 2.0.11
 _ZN3Dtk6Widget11DFlowLayout10addSpacingEi@Base 2.0.11
 _ZN3Dtk6Widget11DFlowLayout10addStretchEi@Base 2.0.11
 _ZN3Dtk6Widget11DFlowLayout10insertItemEiP11QLayoutItem@Base 2.0.11
 _ZN3Dtk6Widget11DFlowLayout10setSpacingEi@Base 2.0.11
 _ZN3Dtk6Widget11DFlowLayout11flowChangedEN9QListView4FlowE@Base 2.0.11
 _ZN3Dtk6Widget11DFlowLayout11qt_metacallEN11QMetaObject4CallEiPPv@Base 2.0.11
 _ZN3Dtk6Widget11DFlowLayout11qt_metacastEPKc@Base 2.0.11
 _ZN3Dtk6Widget11DFlowLayout11setGeometryERK5QRect@Base 2.0.11
 _ZN3Dtk6Widget11DFlowLayout12countChangedEi@Base 2.0.11
 _ZN3Dtk6Widget11DFlowLayout12insertLayoutEiP7QLayout@Base 2.0.11
 _ZN3Dtk6Widget11DFlowLayout12insertWidgetEiP7QWidget@Base 2.0.11
 _ZN3Dtk6Widget11DFlowLayout13addSpacerItemEP11QSpacerItem@Base 2.0.11
 _ZN3Dtk6Widget11DFlowLayout13insertSpacingEii@Base 2.0.11
 _ZN3Dtk6Widget11DFlowLayout13insertStretchEii@Base 2.0.11
 _ZN3Dtk6Widget11DFlowLayout16insertSpacerItemEiP11QSpacerItem@Base 2.0.11
 _ZN3Dtk6Widget11DFlowLayout16staticMetaObjectE@Base 2.0.11
 _ZN3Dtk6Widget11DFlowLayout18setVerticalSpacingEi@Base 2.0.11
 _ZN3Dtk6Widget11DFlowLayout20setHorizontalSpacingEi@Base 2.0.11
 _ZN3Dtk6Widget11DFlowLayout22verticalSpacingChangedEi@Base 2.0.11
 _ZN3Dtk6Widget11DFlowLayout24horizontalSpacingChangedEi@Base 2.0.11
 _ZN3Dtk6Widget11DFlowLayout6takeAtEi@Base 2.0.11
 _ZN3Dtk6Widget11DFlowLayout7addItemEP11QLayoutItem@Base 2.0.11
 _ZN3Dtk6Widget11DFlowLayout7setFlowEN9QListView4FlowE@Base 2.0.11
 _ZN3Dtk6Widget11DFlowLayoutC1EP7QWidget@Base 2.0.11
 _ZN3Dtk6Widget11DFlowLayoutC1Ev@Base 2.0.11
 _ZN3Dtk6Widget11DFlowLayoutC2EP7QWidget@Base 2.0.11
 _ZN3Dtk6Widget11DFlowLayoutC2Ev@Base 2.0.11
 _ZN3Dtk6Widget11DFlowLayoutD0Ev@Base 2.0.11
 _ZN3Dtk6Widget11DFlowLayoutD1Ev@Base 2.0.11
 _ZN3Dtk6Widget11DFlowLayoutD2Ev@Base 2.0.11
 _ZN3Dtk6Widget11DHBoxWidget11qt_metacallEN11QMetaObject4CallEiPPv@Base 2.0.11
 _ZN3Dtk6Widget11DHBoxWidget11qt_metacastEPKc@Base 2.0.11
 _ZN3Dtk6Widget11DHBoxWidget16staticMetaObjectE@Base 2.0.11
 _ZN3Dtk6Widget11DHBoxWidgetC1EP7QWidget@Base 2.0.11
 _ZN3Dtk6Widget11DHBoxWidgetC2EP7QWidget@Base 2.0.11
 _ZN3Dtk6Widget11DHBoxWidgetD0Ev@Base 2.0.11
 _ZN3Dtk6Widget11DHBoxWidgetD1Ev@Base 2.0.11
 _ZN3Dtk6Widget11DHBoxWidgetD2Ev@Base 2.0.11
 _ZN3Dtk6Widget11DHeaderLine10setContentEP7QWidget@Base 2.0.11
 _ZN3Dtk6Widget11DHeaderLine11qt_metacallEN11QMetaObject4CallEiPPv@Base 2.0.11
 _ZN3Dtk6Widget11DHeaderLine11qt_metacastEPKc@Base 2.0.11
 _ZN3Dtk6Widget11DHeaderLine16staticMetaObjectE@Base 2.0.11
 _ZN3Dtk6Widget11DHeaderLine8setTitleERK7QString@Base 2.0.11
 _ZN3Dtk6Widget11DHeaderLineC1EP7QWidget@Base 2.0.11
 _ZN3Dtk6Widget11DHeaderLineC2EP7QWidget@Base 2.0.11
 _ZN3Dtk6Widget11DHeaderLineD0Ev@Base 2.0.11
 _ZN3Dtk6Widget11DHeaderLineD1Ev@Base 2.0.11
 _ZN3Dtk6Widget11DHeaderLineD2Ev@Base 2.0.11
 _ZN3Dtk6Widget11DIconButton10enterEventEP6QEvent@Base 2.0.11
 _ZN3Dtk6Widget11DIconButton10leaveEventEP6QEvent@Base 2.0.11
 _ZN3Dtk6Widget11DIconButton11initConnectEv@Base 2.0.11
 _ZN3Dtk6Widget11DIconButton11mouseLeavedE7QString@Base 2.0.11
 _ZN3Dtk6Widget11DIconButton11qt_metacallEN11QMetaObject4CallEiPPv@Base 2.0.11
 _ZN3Dtk6Widget11DIconButton11qt_metacastEPKc@Base 2.0.11
 _ZN3Dtk6Widget11DIconButton11resizeEventEP12QResizeEvent@Base 2.0.11
 _ZN3Dtk6Widget11DIconButton11updateStyleEv@Base 2.0.11
 _ZN3Dtk6Widget11DIconButton12mouseEnteredE7QString@Base 2.0.11
 _ZN3Dtk6Widget11DIconButton12setIconLabelERK7QString@Base 2.0.11
 _ZN3Dtk6Widget11DIconButton13hideIconLabelEv@Base 2.0.11
 _ZN3Dtk6Widget11DIconButton13initIconLabelEv@Base 2.0.11
 _ZN3Dtk6Widget11DIconButton16staticMetaObjectE@Base 2.0.11
 _ZN3Dtk6Widget11DIconButton17setIconLeftMarginEi@Base 2.0.11
 _ZN3Dtk6Widget11DIconButtonC1ERK7QStringS4_P7QWidget@Base 2.0.11
 _ZN3Dtk6Widget11DIconButtonC2ERK7QStringS4_P7QWidget@Base 2.0.11
 _ZN3Dtk6Widget11DIconButtonD0Ev@Base 2.0.11
 _ZN3Dtk6Widget11DIconButtonD1Ev@Base 2.0.11
 _ZN3Dtk6Widget11DIconButtonD2Ev@Base 2.0.11
 _ZN3Dtk6Widget11DLinkButton11qt_metacallEN11QMetaObject4CallEiPPv@Base 2.0.11
 _ZN3Dtk6Widget11DLinkButton11qt_metacastEPKc@Base 2.0.11
 _ZN3Dtk6Widget11DLinkButton16staticMetaObjectE@Base 2.0.11
 _ZN3Dtk6Widget11DLinkButtonC1ERK7QStringP7QWidget@Base 2.0.11
 _ZN3Dtk6Widget11DLinkButtonC2ERK7QStringP7QWidget@Base 2.0.11
 _ZN3Dtk6Widget11DLinkButtonD0Ev@Base 2.0.11
 _ZN3Dtk6Widget11DLinkButtonD1Ev@Base 2.0.11
 _ZN3Dtk6Widget11DLinkButtonD2Ev@Base 2.0.11
 _ZN3Dtk6Widget11DListWidget10addWidgetsERK5QListIP7QWidgetE6QFlagsIN2Qt13AlignmentFlagEE@Base 2.0.11
 _ZN3Dtk6Widget11DListWidget10hideWidgetEi@Base 2.0.11
 _ZN3Dtk6Widget11DListWidget10setCheckedEib@Base 2.0.11
 _ZN3Dtk6Widget11DListWidget10setSpacingEi@Base 2.0.11
 _ZN3Dtk6Widget11DListWidget10showWidgetEi@Base 2.0.11
 _ZN3Dtk6Widget11DListWidget10updateSizeEv@Base 2.0.11
 _ZN3Dtk6Widget11DListWidget11qt_metacallEN11QMetaObject4CallEiPPv@Base 2.0.11
 _ZN3Dtk6Widget11DListWidget11qt_metacastEPKc@Base 2.0.11
 _ZN3Dtk6Widget11DListWidget11setItemSizeEii@Base 2.0.11
 _ZN3Dtk6Widget11DListWidget12countChangedEi@Base 2.0.11
 _ZN3Dtk6Widget11DListWidget12insertWidgetEiP7QWidget6QFlagsIN2Qt13AlignmentFlagEE@Base 2.0.11
 _ZN3Dtk6Widget11DListWidget12removeWidgetEib@Base 2.0.11
 _ZN3Dtk6Widget11DListWidget12setCheckModeENS1_9CheckModeE@Base 2.0.11
 _ZN3Dtk6Widget11DListWidget12setCheckableEb@Base 2.0.11
 _ZN3Dtk6Widget11DListWidget12setDirectionEN10QBoxLayout9DirectionE@Base 2.0.11
 _ZN3Dtk6Widget11DListWidget13insertWidgetsEiRK5QListIP7QWidgetE6QFlagsIN2Qt13AlignmentFlagEE@Base 2.0.11
 _ZN3Dtk6Widget11DListWidget13setToggleableEb@Base 2.0.11
 _ZN3Dtk6Widget11DListWidget14checkedChangedEib@Base 2.0.11
 _ZN3Dtk6Widget11DListWidget15setVisibleCountEi@Base 2.0.11
 _ZN3Dtk6Widget11DListWidget16checkableChangedEb@Base 2.0.11
 _ZN3Dtk6Widget11DListWidget16staticMetaObjectE@Base 2.0.11
 _ZN3Dtk6Widget11DListWidget17mouseReleaseEventEP11QMouseEvent@Base 2.0.11
 _ZN3Dtk6Widget11DListWidget17toggleableChangedEb@Base 2.0.11
 _ZN3Dtk6Widget11DListWidget18setContentsMarginsERK8QMargins@Base 2.0.11
 _ZN3Dtk6Widget11DListWidget18setContentsMarginsEiiii@Base 2.0.11
 _ZN3Dtk6Widget11DListWidget19firstCheckedChangedEi@Base 2.0.11
 _ZN3Dtk6Widget11DListWidget19visibleCountChangedEi@Base 2.0.11
 _ZN3Dtk6Widget11DListWidget23setEnableVerticalScrollEb@Base 2.0.11
 _ZN3Dtk6Widget11DListWidget25setEnableHorizontalScrollEb@Base 2.0.11
 _ZN3Dtk6Widget11DListWidget27enableVerticalScrollChangedEb@Base 2.0.11
 _ZN3Dtk6Widget11DListWidget29enableHorizontalScrollChangedEb@Base 2.0.11
 _ZN3Dtk6Widget11DListWidget5clearEb@Base 2.0.11
 _ZN3Dtk6Widget11DListWidget7clickedEi@Base 2.0.11
 _ZN3Dtk6Widget11DListWidget7indexOfEPK7QWidget@Base 2.0.11
 _ZN3Dtk6Widget11DListWidget9addWidgetEP7QWidget6QFlagsIN2Qt13AlignmentFlagEE@Base 2.0.11
 _ZN3Dtk6Widget11DListWidgetC1EN10QBoxLayout9DirectionENS1_9CheckModeEP7QWidget@Base 2.0.11
 _ZN3Dtk6Widget11DListWidgetC1ENS1_9CheckModeEP7QWidget@Base 2.0.11
 _ZN3Dtk6Widget11DListWidgetC1ERNS0_18DListWidgetPrivateEP7QWidget@Base 2.0.11
 _ZN3Dtk6Widget11DListWidgetC2EN10QBoxLayout9DirectionENS1_9CheckModeEP7QWidget@Base 2.0.11
 _ZN3Dtk6Widget11DListWidgetC2ENS1_9CheckModeEP7QWidget@Base 2.0.11
 _ZN3Dtk6Widget11DListWidgetC2ERNS0_18DListWidgetPrivateEP7QWidget@Base 2.0.11
 _ZN3Dtk6Widget11DListWidgetD0Ev@Base 2.0.11
 _ZN3Dtk6Widget11DListWidgetD1Ev@Base 2.0.11
 _ZN3Dtk6Widget11DListWidgetD2Ev@Base 2.0.11
 _ZN3Dtk6Widget11DMainWindow11qt_metacallEN11QMetaObject4CallEiPPv@Base 2.0.11
 _ZN3Dtk6Widget11DMainWindow11qt_metacastEPKc@Base 2.0.11
 _ZN3Dtk6Widget11DMainWindow11setClipPathERK12QPainterPath@Base 2.0.11
 _ZN3Dtk6Widget11DMainWindow12setFrameMaskERK7QRegion@Base 2.0.11
 _ZN3Dtk6Widget11DMainWindow14setBorderColorERK6QColor@Base 2.0.11
 _ZN3Dtk6Widget11DMainWindow14setBorderWidthEi@Base 2.0.11
 _ZN3Dtk6Widget11DMainWindow14setShadowColorERK6QColor@Base 2.0.11
 _ZN3Dtk6Widget11DMainWindow15clipPathChangedEv@Base 2.0.11
 _ZN3Dtk6Widget11DMainWindow15setShadowOffsetERK6QPoint@Base 2.0.11
 _ZN3Dtk6Widget11DMainWindow15setShadowRadiusEi@Base 2.0.11
 _ZN3Dtk6Widget11DMainWindow15setWindowRadiusEi@Base 2.0.11
 _ZN3Dtk6Widget11DMainWindow16frameMaskChangedEv@Base 2.0.11
 _ZN3Dtk6Widget11DMainWindow16staticMetaObjectE@Base 2.0.11
 _ZN3Dtk6Widget11DMainWindow18borderColorChangedEv@Base 2.0.11
 _ZN3Dtk6Widget11DMainWindow18borderWidthChangedEv@Base 2.0.11
 _ZN3Dtk6Widget11DMainWindow18shadowColorChangedEv@Base 2.0.11
 _ZN3Dtk6Widget11DMainWindow19frameMarginsChangedEv@Base 2.0.11
 _ZN3Dtk6Widget11DMainWindow19setEnableBlurWindowEb@Base 2.0.11
 _ZN3Dtk6Widget11DMainWindow19setEnableSystemMoveEb@Base 2.0.11
 _ZN3Dtk6Widget11DMainWindow19shadowOffsetChangedEv@Base 2.0.11
 _ZN3Dtk6Widget11DMainWindow19shadowRadiusChangedEv@Base 2.0.11
 _ZN3Dtk6Widget11DMainWindow19windowRadiusChangedEv@Base 2.0.11
 _ZN3Dtk6Widget11DMainWindow21setEnableSystemResizeEb@Base 2.0.11
 _ZN3Dtk6Widget11DMainWindow23enableBlurWindowChangedEv@Base 2.0.11
 _ZN3Dtk6Widget11DMainWindow23enableSystemMoveChangedEv@Base 2.0.11
 _ZN3Dtk6Widget11DMainWindow24setTranslucentBackgroundEb@Base 2.0.11
 _ZN3Dtk6Widget11DMainWindow25enableSystemResizeChangedEv@Base 2.0.11
 _ZN3Dtk6Widget11DMainWindow26setAutoInputMaskByClipPathEb@Base 2.0.11
 _ZN3Dtk6Widget11DMainWindow28translucentBackgroundChangedEv@Base 2.0.11
 _ZN3Dtk6Widget11DMainWindow30autoInputMaskByClipPathChangedEv@Base 2.0.11
 _ZN3Dtk6Widget11DMainWindowC1EP7QWidget@Base 2.0.11
 _ZN3Dtk6Widget11DMainWindowC1ERNS0_18DMainWindowPrivateEP7QWidget@Base 2.0.11
 _ZN3Dtk6Widget11DMainWindowC2EP7QWidget@Base 2.0.11
 _ZN3Dtk6Widget11DMainWindowC2ERNS0_18DMainWindowPrivateEP7QWidget@Base 2.0.11
 _ZN3Dtk6Widget11DMainWindowD0Ev@Base 2.0.11
 _ZN3Dtk6Widget11DMainWindowD1Ev@Base 2.0.11
 _ZN3Dtk6Widget11DMainWindowD2Ev@Base 2.0.11
 _ZN3Dtk6Widget11DOptionList11qt_metacallEN11QMetaObject4CallEiPPv@Base 2.0.11
 _ZN3Dtk6Widget11DOptionList11qt_metacastEPKc@Base 2.0.11
 _ZN3Dtk6Widget11DOptionList12insertOptionEiPNS0_7DOptionE@Base 2.0.11
 _ZN3Dtk6Widget11DOptionList16staticMetaObjectE@Base 2.0.11
 _ZN3Dtk6Widget11DOptionList18setCurrentSelectedERK7QString@Base 2.0.11
 _ZN3Dtk6Widget11DOptionList18setCurrentSelectedEi@Base 2.0.11
 _ZN3Dtk6Widget11DOptionList9addOptionEPNS0_7DOptionE@Base 2.0.11
 _ZN3Dtk6Widget11DOptionListC1EP7QWidget@Base 2.0.11
 _ZN3Dtk6Widget11DOptionListC2EP7QWidget@Base 2.0.11
 _ZN3Dtk6Widget11DOptionListD0Ev@Base 2.0.11
 _ZN3Dtk6Widget11DOptionListD1Ev@Base 2.0.11
 _ZN3Dtk6Widget11DOptionListD2Ev@Base 2.0.11
 _ZN3Dtk6Widget11DPushButton10enterEventEP6QEvent@Base 2.0.11
 _ZN3Dtk6Widget11DPushButton10leaveEventEP6QEvent@Base 2.0.11
 _ZN3Dtk6Widget11DPushButton11qt_metacallEN11QMetaObject4CallEiPPv@Base 2.0.11
 _ZN3Dtk6Widget11DPushButton11qt_metacastEPKc@Base 2.0.11
 _ZN3Dtk6Widget11DPushButton12setHoverIconERK5QIcon@Base 2.0.11
 _ZN3Dtk6Widget11DPushButton12setHoverIconERK7QString@Base 2.0.11
 _ZN3Dtk6Widget11DPushButton12setPressIconERK5QIcon@Base 2.0.11
 _ZN3Dtk6Widget11DPushButton12setPressIconERK7QString@Base 2.0.11
 _ZN3Dtk6Widget11DPushButton13setNormalIconERK5QIcon@Base 2.0.11
 _ZN3Dtk6Widget11DPushButton13setNormalIconERK7QString@Base 2.0.11
 _ZN3Dtk6Widget11DPushButton15mousePressEventEP11QMouseEvent@Base 2.0.11
 _ZN3Dtk6Widget11DPushButton16staticMetaObjectE@Base 2.0.11
 _ZN3Dtk6Widget11DPushButtonC1EP7QWidget@Base 2.0.11
 _ZN3Dtk6Widget11DPushButtonC1ERK7QStringS4_S4_P7QWidget@Base 2.0.11
 _ZN3Dtk6Widget11DPushButtonC2EP7QWidget@Base 2.0.11
 _ZN3Dtk6Widget11DPushButtonC2ERK7QStringS4_S4_P7QWidget@Base 2.0.11
 _ZN3Dtk6Widget11DPushButtonD0Ev@Base 2.0.11
 _ZN3Dtk6Widget11DPushButtonD1Ev@Base 2.0.11
 _ZN3Dtk6Widget11DPushButtonD2Ev@Base 2.0.11
 _ZN3Dtk6Widget11DScrollArea11qt_metacallEN11QMetaObject4CallEiPPv@Base 2.0.11
 _ZN3Dtk6Widget11DScrollArea11qt_metacastEPKc@Base 2.0.11
 _ZN3Dtk6Widget11DScrollArea13hideScrollBarEP10QScrollBar@Base 2.0.11
 _ZN3Dtk6Widget11DScrollArea13showScrollBarEP10QScrollBar@Base 2.0.11
 _ZN3Dtk6Widget11DScrollArea16staticMetaObjectE@Base 2.0.11
 _ZN3Dtk6Widget11DScrollArea20setAutoHideScrollBarEb@Base 2.0.11
 _ZN3Dtk6Widget11DScrollArea24autoHideScrollBarChangedEb@Base 2.0.11
 _ZN3Dtk6Widget11DScrollAreaC1EP7QWidget@Base 2.0.11
 _ZN3Dtk6Widget11DScrollAreaC1ERNS0_18DScrollAreaPrivateEP7QWidget@Base 2.0.11
 _ZN3Dtk6Widget11DScrollAreaC2EP7QWidget@Base 2.0.11
 _ZN3Dtk6Widget11DScrollAreaC2ERNS0_18DScrollAreaPrivateEP7QWidget@Base 2.0.11
 _ZN3Dtk6Widget11DScrollAreaD0Ev@Base 2.0.11
 _ZN3Dtk6Widget11DScrollAreaD1Ev@Base 2.0.11
 _ZN3Dtk6Widget11DScrollAreaD2Ev@Base 2.0.11
 _ZN3Dtk6Widget11DSearchEdit10toEditModeEv@Base 2.0.11
 _ZN3Dtk6Widget11DSearchEdit11eventFilterEP7QObjectP6QEvent@Base 2.0.11
 _ZN3Dtk6Widget11DSearchEdit11qt_metacallEN11QMetaObject4CallEiPPv@Base 2.0.11
 _ZN3Dtk6Widget11DSearchEdit11qt_metacastEPKc@Base 2.0.11
 _ZN3Dtk6Widget11DSearchEdit11resizeEventEP12QResizeEvent@Base 2.0.11
 _ZN3Dtk6Widget11DSearchEdit11textChangedEv@Base 2.0.11
 _ZN3Dtk6Widget11DSearchEdit13returnPressedEv@Base 2.0.11
 _ZN3Dtk6Widget11DSearchEdit15editingFinishedEv@Base 2.0.11
 _ZN3Dtk6Widget11DSearchEdit15initInsideFrameEv@Base 2.0.11
 _ZN3Dtk6Widget11DSearchEdit15mousePressEventEP11QMouseEvent@Base 2.0.11
 _ZN3Dtk6Widget11DSearchEdit16staticMetaObjectE@Base 2.0.11
 _ZN3Dtk6Widget11DSearchEdit17mouseReleaseEventEP11QMouseEvent@Base 2.0.11
 _ZN3Dtk6Widget11DSearchEdit5clearEv@Base 2.0.11
 _ZN3Dtk6Widget11DSearchEdit5eventEP6QEvent@Base 2.0.11
 _ZN3Dtk6Widget11DSearchEdit7focusInEv@Base 2.0.11
 _ZN3Dtk6Widget11DSearchEdit8focusOutEv@Base 2.0.11
 _ZN3Dtk6Widget11DSearchEditC1EP7QWidget@Base 2.0.11
 _ZN3Dtk6Widget11DSearchEditC2EP7QWidget@Base 2.0.11
 _ZN3Dtk6Widget11DSearchEditD0Ev@Base 2.0.11
 _ZN3Dtk6Widget11DSearchEditD1Ev@Base 2.0.11
 _ZN3Dtk6Widget11DSearchEditD2Ev@Base 2.0.11
 _ZN3Dtk6Widget11DTextButton11qt_metacallEN11QMetaObject4CallEiPPv@Base 2.0.11
 _ZN3Dtk6Widget11DTextButton11qt_metacastEPKc@Base 2.0.11
 _ZN3Dtk6Widget11DTextButton16staticMetaObjectE@Base 2.0.11
 _ZN3Dtk6Widget11DTextButtonC1ERK7QStringP7QWidget@Base 2.0.11
 _ZN3Dtk6Widget11DTextButtonC2ERK7QStringP7QWidget@Base 2.0.11
 _ZN3Dtk6Widget11DTextButtonD0Ev@Base 2.0.11
 _ZN3Dtk6Widget11DTextButtonD1Ev@Base 2.0.11
 _ZN3Dtk6Widget11DTextButtonD2Ev@Base 2.0.11
 _ZN3Dtk6Widget11DTickEffect11eventFilterEP7QObjectP6QEvent@Base 2.0.11
 _ZN3Dtk6Widget11DTickEffect11qt_metacallEN11QMetaObject4CallEiPPv@Base 2.0.11
 _ZN3Dtk6Widget11DTickEffect11qt_metacastEPKc@Base 2.0.11
 _ZN3Dtk6Widget11DTickEffect11setDurationEi@Base 2.0.11
 _ZN3Dtk6Widget11DTickEffect12setDirectionENS1_9DirectionE@Base 2.0.11
 _ZN3Dtk6Widget11DTickEffect12stateChangedEv@Base 2.0.11
 _ZN3Dtk6Widget11DTickEffect16staticMetaObjectE@Base 2.0.11
 _ZN3Dtk6Widget11DTickEffect17setFixedPixelMoveEi@Base 2.0.11
 _ZN3Dtk6Widget11DTickEffect4drawEP8QPainter@Base 2.0.11
 _ZN3Dtk6Widget11DTickEffect4playEv@Base 2.0.11
 _ZN3Dtk6Widget11DTickEffect4stopEv@Base 2.0.11
 _ZN3Dtk6Widget11DTickEffect5pauseEv@Base 2.0.11
 _ZN3Dtk6Widget11DTickEffect6resumeEv@Base 2.0.11
 _ZN3Dtk6Widget11DTickEffect8finishedEv@Base 2.0.11
 _ZN3Dtk6Widget11DTickEffectC1EP7QWidgetS3_@Base 2.0.11
 _ZN3Dtk6Widget11DTickEffectC2EP7QWidgetS3_@Base 2.0.11
 _ZN3Dtk6Widget11DTickEffectD0Ev@Base 2.0.11
 _ZN3Dtk6Widget11DTickEffectD1Ev@Base 2.0.11
 _ZN3Dtk6Widget11DTickEffectD2Ev@Base 2.0.11
 _ZN3Dtk6Widget11DVBoxWidget11qt_metacallEN11QMetaObject4CallEiPPv@Base 2.0.11
 _ZN3Dtk6Widget11DVBoxWidget11qt_metacastEPKc@Base 2.0.11
 _ZN3Dtk6Widget11DVBoxWidget16staticMetaObjectE@Base 2.0.11
 _ZN3Dtk6Widget11DVBoxWidgetC1EP7QWidget@Base 2.0.11
 _ZN3Dtk6Widget11DVBoxWidgetC2EP7QWidget@Base 2.0.11
 _ZN3Dtk6Widget11DVBoxWidgetD0Ev@Base 2.0.11
 _ZN3Dtk6Widget11DVBoxWidgetD1Ev@Base 2.0.11
 _ZN3Dtk6Widget11DVBoxWidgetD2Ev@Base 2.0.11
 _ZN3Dtk6Widget12DAboutDialog10setLicenseERK7QString@Base 2.0.11
 _ZN3Dtk6Widget12DAboutDialog10setVersionERK7QString@Base 2.0.11
 _ZN3Dtk6Widget12DAboutDialog11qt_metacallEN11QMetaObject4CallEiPPv@Base 2.0.11
 _ZN3Dtk6Widget12DAboutDialog11qt_metacastEPKc@Base 2.0.11
 _ZN3Dtk6Widget12DAboutDialog13keyPressEventEP9QKeyEvent@Base 2.0.11
 _ZN3Dtk6Widget12DAboutDialog14setCompanyLogoERK7QPixmap@Base 2.0.11
 _ZN3Dtk6Widget12DAboutDialog14setDescriptionERK7QString@Base 2.0.11
 _ZN3Dtk6Widget12DAboutDialog14setProductIconERK5QIcon@Base 2.0.11
 _ZN3Dtk6Widget12DAboutDialog14setProductNameERK7QString@Base 2.0.11
 _ZN3Dtk6Widget12DAboutDialog14setWebsiteLinkERK7QString@Base 2.0.11
 _ZN3Dtk6Widget12DAboutDialog14setWebsiteNameERK7QString@Base 2.0.11
 _ZN3Dtk6Widget12DAboutDialog14setWindowTitleERK7QString@Base 2.0.11
 _ZN3Dtk6Widget12DAboutDialog16staticMetaObjectE@Base 2.0.11
 _ZN3Dtk6Widget12DAboutDialog22setAcknowledgementLinkERK7QString@Base 2.0.11
 _ZN3Dtk6Widget12DAboutDialog25setAcknowledgementVisibleEb@Base 2.0.11
 _ZN3Dtk6Widget12DAboutDialog9showEventEP10QShowEvent@Base 2.0.11
 _ZN3Dtk6Widget12DAboutDialogC1EP7QWidget@Base 2.0.11
 _ZN3Dtk6Widget12DAboutDialogC2EP7QWidget@Base 2.0.11
 _ZN3Dtk6Widget12DAboutDialogD0Ev@Base 2.0.11
 _ZN3Dtk6Widget12DAboutDialogD1Ev@Base 2.0.11
 _ZN3Dtk6Widget12DAboutDialogD2Ev@Base 2.0.11
 _ZN3Dtk6Widget12DAnchorsBase10moveBottomEi@Base 2.0.11
 _ZN3Dtk6Widget12DAnchorsBase10moveCenterERK6QPoint@Base 2.0.11
 _ZN3Dtk6Widget12DAnchorsBase10setEnabledEb@Base 2.0.11
 _ZN3Dtk6Widget12DAnchorsBase10setMarginsEi@Base 2.0.11
 _ZN3Dtk6Widget12DAnchorsBase10topChangedEPKNS0_11DAnchorInfoE@Base 2.0.11
 _ZN3Dtk6Widget12DAnchorsBase10updateFillEv@Base 2.0.11
 _ZN3Dtk6Widget12DAnchorsBase11fillChangedEP7QWidget@Base 2.0.11
 _ZN3Dtk6Widget12DAnchorsBase11leftChangedEPKNS0_11DAnchorInfoE@Base 2.0.11
 _ZN3Dtk6Widget12DAnchorsBase11qt_metacallEN11QMetaObject4CallEiPPv@Base 2.0.11
 _ZN3Dtk6Widget12DAnchorsBase11qt_metacastEPKc@Base 2.0.11
 _ZN3Dtk6Widget12DAnchorsBase11setCenterInEP7QWidget@Base 2.0.11
 _ZN3Dtk6Widget12DAnchorsBase11setCenterInEPS1_@Base 2.0.11
 _ZN3Dtk6Widget12DAnchorsBase12clearAnchorsEPK7QWidget@Base 2.0.11
 _ZN3Dtk6Widget12DAnchorsBase12rightChangedEPKNS0_11DAnchorInfoE@Base 2.0.11
 _ZN3Dtk6Widget12DAnchorsBase12setTopMarginEi@Base 2.0.11
 _ZN3Dtk6Widget12DAnchorsBase13bottomChangedEPKNS0_11DAnchorInfoE@Base 2.0.11
 _ZN3Dtk6Widget12DAnchorsBase13setLeftMarginEi@Base 2.0.11
 _ZN3Dtk6Widget12DAnchorsBase14enabledChangedEb@Base 2.0.11
 _ZN3Dtk6Widget12DAnchorsBase14marginsChangedEi@Base 2.0.11
 _ZN3Dtk6Widget12DAnchorsBase14setRightMarginEi@Base 2.0.11
 _ZN3Dtk6Widget12DAnchorsBase14updateCenterInEv@Base 2.0.11
 _ZN3Dtk6Widget12DAnchorsBase14updateVerticalEv@Base 2.0.11
 _ZN3Dtk6Widget12DAnchorsBase15centerInChangedEP7QWidget@Base 2.0.11
 _ZN3Dtk6Widget12DAnchorsBase15setBottomMarginEi@Base 2.0.11
 _ZN3Dtk6Widget12DAnchorsBase16staticMetaObjectE@Base 2.0.11
 _ZN3Dtk6Widget12DAnchorsBase16topMarginChangedEi@Base 2.0.11
 _ZN3Dtk6Widget12DAnchorsBase16updateHorizontalEv@Base 2.0.11
 _ZN3Dtk6Widget12DAnchorsBase17leftMarginChangedEi@Base 2.0.11
 _ZN3Dtk6Widget12DAnchorsBase17setVerticalCenterEPKNS0_11DAnchorInfoE@Base 2.0.11
 _ZN3Dtk6Widget12DAnchorsBase17setVerticalCenterEiN2Qt11AnchorPointE@Base 2.0.11
 _ZN3Dtk6Widget12DAnchorsBase18moveVerticalCenterEi@Base 2.0.11
 _ZN3Dtk6Widget12DAnchorsBase18rightMarginChangedEi@Base 2.0.11
 _ZN3Dtk6Widget12DAnchorsBase19bottomMarginChangedEi@Base 2.0.11
 _ZN3Dtk6Widget12DAnchorsBase19setHorizontalCenterEPKNS0_11DAnchorInfoE@Base 2.0.11
 _ZN3Dtk6Widget12DAnchorsBase19setHorizontalCenterEiN2Qt11AnchorPointE@Base 2.0.11
 _ZN3Dtk6Widget12DAnchorsBase20moveHorizontalCenterEi@Base 2.0.11
 _ZN3Dtk6Widget12DAnchorsBase20setAlignWhenCenteredEb@Base 2.0.11
 _ZN3Dtk6Widget12DAnchorsBase21getAnchorBaseByWidgetEPK7QWidget@Base 2.0.11
 _ZN3Dtk6Widget12DAnchorsBase21verticalCenterChangedEPKNS0_11DAnchorInfoE@Base 2.0.11
 _ZN3Dtk6Widget12DAnchorsBase23horizontalCenterChangedEPKNS0_11DAnchorInfoE@Base 2.0.11
 _ZN3Dtk6Widget12DAnchorsBase23setVerticalCenterOffsetEi@Base 2.0.11
 _ZN3Dtk6Widget12DAnchorsBase24alignWhenCenteredChangedEb@Base 2.0.11
 _ZN3Dtk6Widget12DAnchorsBase25setHorizontalCenterOffsetEi@Base 2.0.11
 _ZN3Dtk6Widget12DAnchorsBase27verticalCenterOffsetChangedEi@Base 2.0.11
 _ZN3Dtk6Widget12DAnchorsBase29horizontalCenterOffsetChangedEi@Base 2.0.11
 _ZN3Dtk6Widget12DAnchorsBase4initEP7QWidget@Base 2.0.11
 _ZN3Dtk6Widget12DAnchorsBase6setTopEPKNS0_11DAnchorInfoE@Base 2.0.11
 _ZN3Dtk6Widget12DAnchorsBase6setTopEiN2Qt11AnchorPointE@Base 2.0.11
 _ZN3Dtk6Widget12DAnchorsBase7moveTopEi@Base 2.0.11
 _ZN3Dtk6Widget12DAnchorsBase7setFillEP7QWidget@Base 2.0.11
 _ZN3Dtk6Widget12DAnchorsBase7setFillEPS1_@Base 2.0.11
 _ZN3Dtk6Widget12DAnchorsBase7setLeftEPKNS0_11DAnchorInfoE@Base 2.0.11
 _ZN3Dtk6Widget12DAnchorsBase7setLeftEiN2Qt11AnchorPointE@Base 2.0.11
 _ZN3Dtk6Widget12DAnchorsBase8moveLeftEi@Base 2.0.11
 _ZN3Dtk6Widget12DAnchorsBase8setRightEPKNS0_11DAnchorInfoE@Base 2.0.11
 _ZN3Dtk6Widget12DAnchorsBase8setRightEiN2Qt11AnchorPointE@Base 2.0.11
 _ZN3Dtk6Widget12DAnchorsBase9moveRightEi@Base 2.0.11
 _ZN3Dtk6Widget12DAnchorsBase9setAnchorEP7QWidgetRKN2Qt11AnchorPointES3_S7_@Base 2.0.11
 _ZN3Dtk6Widget12DAnchorsBase9setAnchorERKN2Qt11AnchorPointEP7QWidgetS5_@Base 2.0.11
 _ZN3Dtk6Widget12DAnchorsBase9setBottomEPKNS0_11DAnchorInfoE@Base 2.0.11
 _ZN3Dtk6Widget12DAnchorsBase9setBottomEiN2Qt11AnchorPointE@Base 2.0.11
 _ZN3Dtk6Widget12DAnchorsBaseC1EP7QWidget@Base 2.0.11
 _ZN3Dtk6Widget12DAnchorsBaseC1EP7QWidgetb@Base 2.0.11
 _ZN3Dtk6Widget12DAnchorsBaseC2EP7QWidget@Base 2.0.11
 _ZN3Dtk6Widget12DAnchorsBaseC2EP7QWidgetb@Base 2.0.11
 _ZN3Dtk6Widget12DAnchorsBaseD0Ev@Base 2.0.11
 _ZN3Dtk6Widget12DAnchorsBaseD1Ev@Base 2.0.11
 _ZN3Dtk6Widget12DAnchorsBaseD2Ev@Base 2.0.11
 _ZN3Dtk6Widget12DAnchorsRect17setVerticalCenterEdN2Qt11AnchorPointE@Base 2.0.11
 _ZN3Dtk6Widget12DAnchorsRect19setHorizontalCenterEdN2Qt11AnchorPointE@Base 2.0.11
 _ZN3Dtk6Widget12DAnchorsRect6setTopEiN2Qt11AnchorPointE@Base 2.0.11
 _ZN3Dtk6Widget12DAnchorsRect7setLeftEiN2Qt11AnchorPointE@Base 2.0.11
 _ZN3Dtk6Widget12DAnchorsRect8setRightEiN2Qt11AnchorPointE@Base 2.0.11
 _ZN3Dtk6Widget12DAnchorsRect9setBottomEiN2Qt11AnchorPointE@Base 2.0.11
 _ZN3Dtk6Widget12DApplication11aboutDialogEv@Base 2.0.11
 _ZN3Dtk6Widget12DApplication11qt_metacallEN11QMetaObject4CallEiPPv@Base 2.0.11
 _ZN3Dtk6Widget12DApplication11qt_metacastEPKc@Base 2.0.11
 _ZN3Dtk6Widget12DApplication14isDXcbPlatformEv@Base 2.0.11
 _ZN3Dtk6Widget12DApplication14loadDXcbPluginEv@Base 2.0.11
 _ZN3Dtk6Widget12DApplication14loadTranslatorE5QListI7QLocaleE@Base 2.0.11
 _ZN3Dtk6Widget12DApplication14setAboutDialogEPNS0_12DAboutDialogE@Base 2.0.11
 _ZN3Dtk6Widget12DApplication14setOOMScoreAdjEi@Base 2.0.11
 _ZN3Dtk6Widget12DApplication14setProductIconERK5QIcon@Base 2.0.11
 _ZN3Dtk6Widget12DApplication14setProductNameERK7QString@Base 2.0.11
 _ZN3Dtk6Widget12DApplication15buildDtkVersionEv@Base 2.0.11
 _ZN3Dtk6Widget12DApplication16handleHelpActionEv@Base 2.0.11
 _ZN3Dtk6Widget12DApplication16handleQuitActionEv@Base 2.0.11
 _ZN3Dtk6Widget12DApplication16iconThemeChangedEv@Base 2.0.11
 _ZN3Dtk6Widget12DApplication16staticMetaObjectE@Base 2.0.11
 _ZN3Dtk6Widget12DApplication17handleAboutActionEv@Base 2.0.11
 _ZN3Dtk6Widget12DApplication17runtimeDtkVersionEv@Base 2.0.11
 _ZN3Dtk6Widget12DApplication17setSingleInstanceERK7QString@Base 2.0.11
 _ZN3Dtk6Widget12DApplication17setSingleInstanceERK7QStringNS1_11SingleScopeE@Base 2.0.11
 _ZN3Dtk6Widget12DApplication18newInstanceStartedEv@Base 2.0.11
 _ZN3Dtk6Widget12DApplication18registerDDESessionEv@Base 2.0.11
 _ZN3Dtk6Widget12DApplication18setVisibleMenuIconEb@Base 2.0.11
 _ZN3Dtk6Widget12DApplication21setApplicationLicenseERK7QString@Base 2.0.11
 _ZN3Dtk6Widget12DApplication22setApplicationHomePageERK7QString@Base 2.0.11
 _ZN3Dtk6Widget12DApplication23customQtThemeConfigPathERK7QString@Base 2.0.11
 _ZN3Dtk6Widget12DApplication25setApplicationDescriptionERK7QString@Base 2.0.11
 _ZN3Dtk6Widget12DApplication26setVisibleMenuShortcutTextEb@Base 2.0.11
 _ZN3Dtk6Widget12DApplication27customizedQtThemeConfigPathEv@Base 2.0.11
 _ZN3Dtk6Widget12DApplication28setVisibleMenuCheckboxWidgetEb@Base 2.0.11
 _ZN3Dtk6Widget12DApplication29screenDevicePixelRatioChangedEP7QScreen@Base 2.0.11
 _ZN3Dtk6Widget12DApplication33customQtThemeConfigPathByUserHomeERK7QString@Base 2.0.11
 _ZN3Dtk6Widget12DApplication33setApplicationAcknowledgementPageERK7QString@Base 2.0.11
 _ZN3Dtk6Widget12DApplication36setApplicationAcknowledgementVisibleEb@Base 2.0.11
 _ZN3Dtk6Widget12DApplication6notifyEP7QObjectP6QEvent@Base 2.0.11
 _ZN3Dtk6Widget12DApplication8setThemeERK7QString@Base 2.0.11
 _ZN3Dtk6Widget12DApplicationC1ERiPPc@Base 2.0.11
 _ZN3Dtk6Widget12DApplicationC2ERiPPc@Base 2.0.11
 _ZN3Dtk6Widget12DApplicationD0Ev@Base 2.0.11
 _ZN3Dtk6Widget12DApplicationD1Ev@Base 2.0.11
 _ZN3Dtk6Widget12DApplicationD2Ev@Base 2.0.11
 _ZN3Dtk6Widget12DArrowButton10enterEventEP6QEvent@Base 2.0.11
 _ZN3Dtk6Widget12DArrowButton10leaveEventEP6QEvent@Base 2.0.11
 _ZN3Dtk6Widget12DArrowButton10mouseEnterEv@Base 2.0.11
 _ZN3Dtk6Widget12DArrowButton10mouseLeaveEv@Base 2.0.11
 _ZN3Dtk6Widget12DArrowButton10mousePressEv@Base 2.0.11
 _ZN3Dtk6Widget12DArrowButton11qt_metacallEN11QMetaObject4CallEiPPv@Base 2.0.11
 _ZN3Dtk6Widget12DArrowButton11qt_metacastEPKc@Base 2.0.11
 _ZN3Dtk6Widget12DArrowButton12mouseReleaseEv@Base 2.0.11
 _ZN3Dtk6Widget12DArrowButton14setButtonStateENS1_16ArrowButtonStateE@Base 2.0.11
 _ZN3Dtk6Widget12DArrowButton15initButtonStateEv@Base 2.0.11
 _ZN3Dtk6Widget12DArrowButton15mousePressEventEP11QMouseEvent@Base 2.0.11
 _ZN3Dtk6Widget12DArrowButton15updateIconStateENS1_16ArrowButtonStateE@Base 2.0.11
 _ZN3Dtk6Widget12DArrowButton16staticMetaObjectE@Base 2.0.11
 _ZN3Dtk6Widget12DArrowButton17mouseReleaseEventEP11QMouseEvent@Base 2.0.11
 _ZN3Dtk6Widget12DArrowButton17setArrowDirectionENS1_14ArrowDirectionE@Base 2.0.11
 _ZN3Dtk6Widget12DArrowButton19updateIconDirectionENS1_14ArrowDirectionE@Base 2.0.11
 _ZN3Dtk6Widget12DArrowButtonC1EP7QWidget@Base 2.0.11
 _ZN3Dtk6Widget12DArrowButtonC2EP7QWidget@Base 2.0.11
 _ZN3Dtk6Widget12DArrowButtonD0Ev@Base 2.0.11
 _ZN3Dtk6Widget12DArrowButtonD1Ev@Base 2.0.11
 _ZN3Dtk6Widget12DArrowButtonD2Ev@Base 2.0.11
 _ZN3Dtk6Widget12DExpandGroup11qt_metacallEN11QMetaObject4CallEiPPv@Base 2.0.11
 _ZN3Dtk6Widget12DExpandGroup11qt_metacastEPKc@Base 2.0.11
 _ZN3Dtk6Widget12DExpandGroup12removeExpandEPNS0_11DBaseExpandE@Base 2.0.11
 _ZN3Dtk6Widget12DExpandGroup15onExpandChangedEb@Base 2.0.11
 _ZN3Dtk6Widget12DExpandGroup16staticMetaObjectE@Base 2.0.11
 _ZN3Dtk6Widget12DExpandGroup5setIdEPNS0_11DBaseExpandEi@Base 2.0.11
 _ZN3Dtk6Widget12DExpandGroup9addExpandEPNS0_11DBaseExpandEi@Base 2.0.11
 _ZN3Dtk6Widget12DExpandGroupC1EP7QObject@Base 2.0.11
 _ZN3Dtk6Widget12DExpandGroupC2EP7QObject@Base 2.0.11
 _ZN3Dtk6Widget12DExpandGroupD0Ev@Base 2.0.11
 _ZN3Dtk6Widget12DExpandGroupD1Ev@Base 2.0.11
 _ZN3Dtk6Widget12DExpandGroupD2Ev@Base 2.0.11
 _ZN3Dtk6Widget12DHiDPIHelper12loadNxPixmapERK7QString@Base 2.0.11
 _ZN3Dtk6Widget12DImageButton10enterEventEP6QEvent@Base 2.0.11
 _ZN3Dtk6Widget12DImageButton10leaveEventEP6QEvent@Base 2.0.11
 _ZN3Dtk6Widget12DImageButton10setCheckedEb@Base 2.0.11
 _ZN3Dtk6Widget12DImageButton10setEnabledEb@Base 2.0.11
 _ZN3Dtk6Widget12DImageButton11qt_metacallEN11QMetaObject4CallEiPPv@Base 2.0.11
 _ZN3Dtk6Widget12DImageButton11qt_metacastEPKc@Base 2.0.11
 _ZN3Dtk6Widget12DImageButton11setDisabledEb@Base 2.0.11
 _ZN3Dtk6Widget12DImageButton11setHoverPicERK7QString@Base 2.0.11
 _ZN3Dtk6Widget12DImageButton11setPressPicERK7QString@Base 2.0.11
 _ZN3Dtk6Widget12DImageButton12setCheckableEb@Base 2.0.11
 _ZN3Dtk6Widget12DImageButton12setNormalPicERK7QString@Base 2.0.11
 _ZN3Dtk6Widget12DImageButton12stateChangedEv@Base 2.0.11
 _ZN3Dtk6Widget12DImageButton13setCheckedPicERK7QString@Base 2.0.11
 _ZN3Dtk6Widget12DImageButton14checkedChangedEb@Base 2.0.11
 _ZN3Dtk6Widget12DImageButton14mouseMoveEventEP11QMouseEvent@Base 2.0.11
 _ZN3Dtk6Widget12DImageButton14setDisabledPicERK7QString@Base 2.0.11
 _ZN3Dtk6Widget12DImageButton15mousePressEventEP11QMouseEvent@Base 2.0.11
 _ZN3Dtk6Widget12DImageButton16staticMetaObjectE@Base 2.0.11
 _ZN3Dtk6Widget12DImageButton17mouseReleaseEventEP11QMouseEvent@Base 2.0.11
 _ZN3Dtk6Widget12DImageButton7clickedEv@Base 2.0.11
 _ZN3Dtk6Widget12DImageButton8setStateENS1_5StateE@Base 2.0.11
 _ZN3Dtk6Widget12DImageButtonC1EP7QWidget@Base 2.0.11
 _ZN3Dtk6Widget12DImageButtonC1ERK7QStringS4_S4_P7QWidget@Base 2.0.11
 _ZN3Dtk6Widget12DImageButtonC1ERK7QStringS4_S4_S4_P7QWidget@Base 2.0.11
 _ZN3Dtk6Widget12DImageButtonC1ERNS0_19DImageButtonPrivateEP7QWidget@Base 2.0.11
 _ZN3Dtk6Widget12DImageButtonC2EP7QWidget@Base 2.0.11
 _ZN3Dtk6Widget12DImageButtonC2ERK7QStringS4_S4_P7QWidget@Base 2.0.11
 _ZN3Dtk6Widget12DImageButtonC2ERK7QStringS4_S4_S4_P7QWidget@Base 2.0.11
 _ZN3Dtk6Widget12DImageButtonC2ERNS0_19DImageButtonPrivateEP7QWidget@Base 2.0.11
 _ZN3Dtk6Widget12DImageButtonD0Ev@Base 2.0.11
 _ZN3Dtk6Widget12DImageButtonD1Ev@Base 2.0.11
 _ZN3Dtk6Widget12DImageButtonD2Ev@Base 2.0.11
 _ZN3Dtk6Widget12DInputDialog10setIntStepEi@Base 2.0.11
 _ZN3Dtk6Widget12DInputDialog11qt_metacallEN11QMetaObject4CallEiPPv@Base 2.0.11
 _ZN3Dtk6Widget12DInputDialog11qt_metacastEPKc@Base 2.0.11
 _ZN3Dtk6Widget12DInputDialog11setIntRangeEii@Base 2.0.11
 _ZN3Dtk6Widget12DInputDialog11setIntValueEi@Base 2.0.11
 _ZN3Dtk6Widget12DInputDialog12setInputModeENS1_9InputModeE@Base 2.0.11
 _ZN3Dtk6Widget12DInputDialog12setTextAlertEb@Base 2.0.11
 _ZN3Dtk6Widget12DInputDialog12setTextValueERK7QString@Base 2.0.11
 _ZN3Dtk6Widget12DInputDialog13setIntMaximumEi@Base 2.0.11
 _ZN3Dtk6Widget12DInputDialog13setIntMinimumEi@Base 2.0.11
 _ZN3Dtk6Widget12DInputDialog14setDoubleRangeEdd@Base 2.0.11
 _ZN3Dtk6Widget12DInputDialog14setDoubleValueEd@Base 2.0.11
 _ZN3Dtk6Widget12DInputDialog15intValueChangedEi@Base 2.0.11
 _ZN3Dtk6Widget12DInputDialog15okButtonClickedEv@Base 2.0.11
 _ZN3Dtk6Widget12DInputDialog15setOkButtonTextERK7QString@Base 2.0.11
 _ZN3Dtk6Widget12DInputDialog15setTextEchoModeEN9QLineEdit8EchoModeE@Base 2.0.11
 _ZN3Dtk6Widget12DInputDialog16intValueSelectedEi@Base 2.0.11
 _ZN3Dtk6Widget12DInputDialog16setComboBoxItemsERK11QStringList@Base 2.0.11
 _ZN3Dtk6Widget12DInputDialog16setDoubleMaximumEd@Base 2.0.11
 _ZN3Dtk6Widget12DInputDialog16setDoubleMinimumEd@Base 2.0.11
 _ZN3Dtk6Widget12DInputDialog16staticMetaObjectE@Base 2.0.11
 _ZN3Dtk6Widget12DInputDialog16textAlertChangedEb@Base 2.0.11
 _ZN3Dtk6Widget12DInputDialog16textValueChangedERK7QString@Base 2.0.11
 _ZN3Dtk6Widget12DInputDialog17setDoubleDecimalsEi@Base 2.0.11
 _ZN3Dtk6Widget12DInputDialog17textValueSelectedERK7QString@Base 2.0.11
 _ZN3Dtk6Widget12DInputDialog18doubleValueChangedEd@Base 2.0.11
 _ZN3Dtk6Widget12DInputDialog18setOkButtonEnabledEb@Base 2.0.11
 _ZN3Dtk6Widget12DInputDialog19cancelButtonClickedEv@Base 2.0.11
 _ZN3Dtk6Widget12DInputDialog19doubleValueSelectedEd@Base 2.0.11
 _ZN3Dtk6Widget12DInputDialog19setCancelButtonTextERK7QString@Base 2.0.11
 _ZN3Dtk6Widget12DInputDialog19setComboBoxEditableEb@Base 2.0.11
 _ZN3Dtk6Widget12DInputDialog23setComboBoxCurrentIndexEi@Base 2.0.11
 _ZN3Dtk6Widget12DInputDialog27comboBoxCurrentIndexChangedEi@Base 2.0.11
 _ZN3Dtk6Widget12DInputDialog6getIntEP7QWidgetRK7QStringS6_iiiiPb6QFlagsIN2Qt10WindowTypeEE@Base 2.0.11
 _ZN3Dtk6Widget12DInputDialog7getItemEP7QWidgetRK7QStringS6_RK11QStringListibPb6QFlagsIN2Qt10WindowTypeEESB_INSC_15InputMethodHintEE@Base 2.0.11
 _ZN3Dtk6Widget12DInputDialog7getTextEP7QWidgetRK7QStringS6_N9QLineEdit8EchoModeES6_Pb6QFlagsIN2Qt10WindowTypeEESA_INSB_15InputMethodHintEE@Base 2.0.11
 _ZN3Dtk6Widget12DInputDialog9getDoubleEP7QWidgetRK7QStringS6_dddiPb6QFlagsIN2Qt10WindowTypeEE@Base 2.0.11
 _ZN3Dtk6Widget12DInputDialog9showEventEP10QShowEvent@Base 2.0.11
 _ZN3Dtk6Widget12DInputDialogC1EP7QWidget@Base 2.0.11
 _ZN3Dtk6Widget12DInputDialogC2EP7QWidget@Base 2.0.11
 _ZN3Dtk6Widget12DInputDialogD0Ev@Base 2.0.11
 _ZN3Dtk6Widget12DInputDialogD1Ev@Base 2.0.11
 _ZN3Dtk6Widget12DInputDialogD2Ev@Base 2.0.11
 _ZN3Dtk6Widget12DStackWidget10pushWidgetEP7QWidgetb@Base 2.0.11
 _ZN3Dtk6Widget12DStackWidget11busyChangedEb@Base 2.0.11
 _ZN3Dtk6Widget12DStackWidget11qt_metacallEN11QMetaObject4CallEiPPv@Base 2.0.11
 _ZN3Dtk6Widget12DStackWidget11qt_metacastEPKc@Base 2.0.11
 _ZN3Dtk6Widget12DStackWidget12depthChangedEi@Base 2.0.11
 _ZN3Dtk6Widget12DStackWidget12insertWidgetEiP7QWidgetb@Base 2.0.11
 _ZN3Dtk6Widget12DStackWidget13setTransitionEPNS0_30DAbstractStackWidgetTransitionE@Base 2.0.11
 _ZN3Dtk6Widget12DStackWidget15setCurrentIndexEiNS0_30DAbstractStackWidgetTransition14TransitionTypeEb@Base 2.0.11
 _ZN3Dtk6Widget12DStackWidget16setAnimationTypeEN12QEasingCurve4TypeE@Base 2.0.11
 _ZN3Dtk6Widget12DStackWidget16setCurrentWidgetEP7QWidgetNS0_30DAbstractStackWidgetTransition14TransitionTypeEb@Base 2.0.11
 _ZN3Dtk6Widget12DStackWidget16staticMetaObjectE@Base 2.0.11
 _ZN3Dtk6Widget12DStackWidget18widgetDepthChangedEP7QWidgeti@Base 2.0.11
 _ZN3Dtk6Widget12DStackWidget19currentIndexChangedEi@Base 2.0.11
 _ZN3Dtk6Widget12DStackWidget20currentWidgetChangedEP7QWidget@Base 2.0.11
 _ZN3Dtk6Widget12DStackWidget20setAnimationDurationEi@Base 2.0.11
 _ZN3Dtk6Widget12DStackWidget20switchWidgetFinishedEv@Base 2.0.11
 _ZN3Dtk6Widget12DStackWidget5clearEv@Base 2.0.11
 _ZN3Dtk6Widget12DStackWidget9popWidgetEP7QWidgetbib@Base 2.0.11
 _ZN3Dtk6Widget12DStackWidgetC1EP7QWidget@Base 2.0.11
 _ZN3Dtk6Widget12DStackWidgetC1ERNS0_19DStackWidgetPrivateEP7QWidget@Base 2.0.11
 _ZN3Dtk6Widget12DStackWidgetC2EP7QWidget@Base 2.0.11
 _ZN3Dtk6Widget12DStackWidgetC2ERNS0_19DStackWidgetPrivateEP7QWidget@Base 2.0.11
 _ZN3Dtk6Widget12DStackWidgetD0Ev@Base 2.0.11
 _ZN3Dtk6Widget12DStackWidgetD1Ev@Base 2.0.11
 _ZN3Dtk6Widget12DStackWidgetD2Ev@Base 2.0.11
 _ZN3Dtk6Widget12DStyleOption4initEP7QWidget@Base 2.0.11
 _ZN3Dtk6Widget12DSvgRenderer10setViewBoxERK5QRect@Base 2.0.11
 _ZN3Dtk6Widget12DSvgRenderer10setViewBoxERK6QRectF@Base 2.0.11
 _ZN3Dtk6Widget12DSvgRenderer4loadERK10QByteArray@Base 2.0.11
 _ZN3Dtk6Widget12DSvgRenderer4loadERK7QString@Base 2.0.11
 _ZN3Dtk6Widget12DSvgRenderer6renderEP8QPainter@Base 2.0.11
 _ZN3Dtk6Widget12DSvgRenderer6renderEP8QPainterRK6QRectF@Base 2.0.11
 _ZN3Dtk6Widget12DSvgRenderer6renderEP8QPainterRK7QStringRK6QRectF@Base 2.0.11
 _ZN3Dtk6Widget12DSvgRendererC1EP7QObject@Base 2.0.11
 _ZN3Dtk6Widget12DSvgRendererC1ERK10QByteArrayP7QObject@Base 2.0.11
 _ZN3Dtk6Widget12DSvgRendererC1ERK7QStringP7QObject@Base 2.0.11
 _ZN3Dtk6Widget12DSvgRendererC2EP7QObject@Base 2.0.11
 _ZN3Dtk6Widget12DSvgRendererC2ERK10QByteArrayP7QObject@Base 2.0.11
 _ZN3Dtk6Widget12DSvgRendererC2ERK7QStringP7QObject@Base 2.0.11
 _ZN3Dtk6Widget12DSvgRendererD0Ev@Base 2.0.11
 _ZN3Dtk6Widget12DSvgRendererD1Ev@Base 2.0.11
 _ZN3Dtk6Widget12DSvgRendererD2Ev@Base 2.0.11
 _ZN3Dtk6Widget12DVideoWidget10hueChangedEi@Base 2.0.11
 _ZN3Dtk6Widget12DVideoWidget10paintEventEP11QPaintEvent@Base 2.0.11
 _ZN3Dtk6Widget12DVideoWidget11qt_metacallEN11QMetaObject4CallEiPPv@Base 2.0.11
 _ZN3Dtk6Widget12DVideoWidget11qt_metacastEPKc@Base 2.0.11
 _ZN3Dtk6Widget12DVideoWidget11setContrastEi@Base 2.0.11
 _ZN3Dtk6Widget12DVideoWidget12roundChangedEb@Base 2.0.11
 _ZN3Dtk6Widget12DVideoWidget12scaleChangedEd@Base 2.0.11
 _ZN3Dtk6Widget12DVideoWidget13setBrightnessEi@Base 2.0.11
 _ZN3Dtk6Widget12DVideoWidget13setSaturationEi@Base 2.0.11
 _ZN3Dtk6Widget12DVideoWidget15contrastChangedEi@Base 2.0.11
 _ZN3Dtk6Widget12DVideoWidget16staticMetaObjectE@Base 2.0.11
 _ZN3Dtk6Widget12DVideoWidget17brightnessChangedEi@Base 2.0.11
 _ZN3Dtk6Widget12DVideoWidget17saturationChangedEi@Base 2.0.11
 _ZN3Dtk6Widget12DVideoWidget18setAspectRatioModeEN2Qt15AspectRatioModeE@Base 2.0.11
 _ZN3Dtk6Widget12DVideoWidget19setMirroredVerticalEb@Base 2.0.11
 _ZN3Dtk6Widget12DVideoWidget21setMirroredHorizontalEb@Base 2.0.11
 _ZN3Dtk6Widget12DVideoWidget23mirroredVerticalChangedEb@Base 2.0.11
 _ZN3Dtk6Widget12DVideoWidget24setSourceVideoPixelRatioEd@Base 2.0.11
 _ZN3Dtk6Widget12DVideoWidget25mirroredHorizontalChangedEb@Base 2.0.11
 _ZN3Dtk6Widget12DVideoWidget5paintERK11QVideoFrame@Base 2.0.11
 _ZN3Dtk6Widget12DVideoWidget6setHueEi@Base 2.0.11
 _ZN3Dtk6Widget12DVideoWidget7captureEv@Base 2.0.11
 _ZN3Dtk6Widget12DVideoWidget8setRoundEb@Base 2.0.11
 _ZN3Dtk6Widget12DVideoWidget8setScaleEd@Base 2.0.11
 _ZN3Dtk6Widget12DVideoWidget9setSourceEP12QMediaPlayer@Base 2.0.11
 _ZN3Dtk6Widget12DVideoWidget9setSourceEP7QCamera@Base 2.0.11
 _ZN3Dtk6Widget12DVideoWidgetC1EP7QWidget@Base 2.0.11
 _ZN3Dtk6Widget12DVideoWidgetC2EP7QWidget@Base 2.0.11
 _ZN3Dtk6Widget12DVideoWidgetD0Ev@Base 2.0.11
 _ZN3Dtk6Widget12DVideoWidgetD1Ev@Base 2.0.11
 _ZN3Dtk6Widget12DVideoWidgetD2Ev@Base 2.0.11
 _ZN3Dtk6Widget12DialogButton11qt_metacallEN11QMetaObject4CallEiPPv@Base 2.0.11
 _ZN3Dtk6Widget12DialogButton11qt_metacastEPKc@Base 2.0.11
 _ZN3Dtk6Widget12DialogButton13setButtonTypeEi@Base 2.0.11
 _ZN3Dtk6Widget12DialogButton16staticMetaObjectE@Base 2.0.11
 _ZN3Dtk6Widget12DialogButton17buttonTypeChangedEi@Base 2.0.11
 _ZN3Dtk6Widget12DialogButtonC1ERK7QStringP7QWidget@Base 2.0.11
 _ZN3Dtk6Widget12DialogButtonC2ERK7QStringP7QWidget@Base 2.0.11
 _ZN3Dtk6Widget12DialogButtonD0Ev@Base 2.0.11
 _ZN3Dtk6Widget12DialogButtonD1Ev@Base 2.0.11
 _ZN3Dtk6Widget12DialogButtonD2Ev@Base 2.0.11
 _ZN3Dtk6Widget12moveToCenterEP7QWidget@Base 2.0.11
 _ZN3Dtk6Widget13ContentLoader11qt_metacallEN11QMetaObject4CallEiPPv@Base 2.0.11
 _ZN3Dtk6Widget13ContentLoader11qt_metacastEPKc@Base 2.0.11
 _ZN3Dtk6Widget13ContentLoader16staticMetaObjectE@Base 2.0.11
 _ZN3Dtk6Widget13ContentLoaderD0Ev@Base 2.0.11
 _ZN3Dtk6Widget13ContentLoaderD1Ev@Base 2.0.11
 _ZN3Dtk6Widget13ContentLoaderD2Ev@Base 2.0.11
 _ZN3Dtk6Widget13DIpv4LineEdit11eventFilterEP7QObjectP6QEvent@Base 2.0.11
 _ZN3Dtk6Widget13DIpv4LineEdit11qt_metacallEN11QMetaObject4CallEiPPv@Base 2.0.11
 _ZN3Dtk6Widget13DIpv4LineEdit11qt_metacastEPKc@Base 2.0.11
 _ZN3Dtk6Widget13DIpv4LineEdit11setReadOnlyEb@Base 2.0.11
 _ZN3Dtk6Widget13DIpv4LineEdit12setSelectionEii@Base 2.0.11
 _ZN3Dtk6Widget13DIpv4LineEdit16staticMetaObjectE@Base 2.0.11
 _ZN3Dtk6Widget13DIpv4LineEdit17setCursorPositionEi@Base 2.0.11
 _ZN3Dtk6Widget13DIpv4LineEdit9selectAllEv@Base 2.0.11
 _ZN3Dtk6Widget13DIpv4LineEditC1EP7QWidget@Base 2.0.11
 _ZN3Dtk6Widget13DIpv4LineEditC2EP7QWidget@Base 2.0.11
 _ZN3Dtk6Widget13DIpv4LineEditD0Ev@Base 2.0.11
 _ZN3Dtk6Widget13DIpv4LineEditD1Ev@Base 2.0.11
 _ZN3Dtk6Widget13DIpv4LineEditD2Ev@Base 2.0.11
 _ZN3Dtk6Widget13DMPRISControl11qt_metacallEN11QMetaObject4CallEiPPv@Base 2.0.11
 _ZN3Dtk6Widget13DMPRISControl11qt_metacastEPKc@Base 2.0.11
 _ZN3Dtk6Widget13DMPRISControl14setPictureSizeERK5QSize@Base 2.0.11
 _ZN3Dtk6Widget13DMPRISControl16staticMetaObjectE@Base 2.0.11
 _ZN3Dtk6Widget13DMPRISControl17setPictureVisibleEb@Base 2.0.11
 _ZN3Dtk6Widget13DMPRISControlC1EP7QWidget@Base 2.0.11
 _ZN3Dtk6Widget13DMPRISControlC2EP7QWidget@Base 2.0.11
 _ZN3Dtk6Widget13DMPRISControlD0Ev@Base 2.0.11
 _ZN3Dtk6Widget13DMPRISControlD1Ev@Base 2.0.11
 _ZN3Dtk6Widget13DMPRISControlD2Ev@Base 2.0.11
 _ZN3Dtk6Widget13DPasswordEdit11qt_metacallEN11QMetaObject4CallEiPPv@Base 2.0.11
 _ZN3Dtk6Widget13DPasswordEdit11qt_metacastEPKc@Base 2.0.11
 _ZN3Dtk6Widget13DPasswordEdit11setEchoModeEN9QLineEdit8EchoModeE@Base 2.0.11
 _ZN3Dtk6Widget13DPasswordEdit15echoModeChangedEb@Base 2.0.11
 _ZN3Dtk6Widget13DPasswordEdit16staticMetaObjectE@Base 2.0.11
 _ZN3Dtk6Widget13DPasswordEditC1EP7QWidget@Base 2.0.11
 _ZN3Dtk6Widget13DPasswordEditC2EP7QWidget@Base 2.0.11
 _ZN3Dtk6Widget13DPasswordEditD0Ev@Base 2.0.11
 _ZN3Dtk6Widget13DPasswordEditD1Ev@Base 2.0.11
 _ZN3Dtk6Widget13DPasswordEditD2Ev@Base 2.0.11
 _ZN3Dtk6Widget13DShortcutEdit10toEchoModeEv@Base 2.0.11
 _ZN3Dtk6Widget13DShortcutEdit11DefaultTipsE@Base 2.0.11
 _ZN3Dtk6Widget13DShortcutEdit11eventFilterEP7QObjectP6QEvent@Base 2.0.11
 _ZN3Dtk6Widget13DShortcutEdit11qt_metacallEN11QMetaObject4CallEiPPv@Base 2.0.11
 _ZN3Dtk6Widget13DShortcutEdit11qt_metacastEPKc@Base 2.0.11
 _ZN3Dtk6Widget13DShortcutEdit13setKeyMappingERK4QMapI7QStringS3_E@Base 2.0.11
 _ZN3Dtk6Widget13DShortcutEdit14setShortcutKeyERK7QString@Base 2.0.11
 _ZN3Dtk6Widget13DShortcutEdit16clearShortcutKeyEv@Base 2.0.11
 _ZN3Dtk6Widget13DShortcutEdit16shortcutKeyPressEP9QKeyEvent@Base 2.0.11
 _ZN3Dtk6Widget13DShortcutEdit16staticMetaObjectE@Base 2.0.11
 _ZN3Dtk6Widget13DShortcutEdit18invalidShortcutKeyERK7QString@Base 2.0.11
 _ZN3Dtk6Widget13DShortcutEdit18isValidShortcutKeyERK7QString@Base 2.0.11
 _ZN3Dtk6Widget13DShortcutEdit19convertShortcutKeysERK7QString@Base 2.0.11
 _ZN3Dtk6Widget13DShortcutEdit19shortcutKeysChangedERK7QString@Base 2.0.11
 _ZN3Dtk6Widget13DShortcutEdit20shortcutKeysFinishedERK7QString@Base 2.0.11
 _ZN3Dtk6Widget13DShortcutEdit24setBlockShortcutKeysListERK5QListI7QRegExpE@Base 2.0.11
 _ZN3Dtk6Widget13DShortcutEditC1EP7QWidget@Base 2.0.11
 _ZN3Dtk6Widget13DShortcutEditC2EP7QWidget@Base 2.0.11
 _ZN3Dtk6Widget13DShortcutEditD0Ev@Base 2.0.11
 _ZN3Dtk6Widget13DShortcutEditD1Ev@Base 2.0.11
 _ZN3Dtk6Widget13DShortcutEditD2Ev@Base 2.0.11
 _ZN3Dtk6Widget13DSwitchButton10paintEventEP11QPaintEvent@Base 2.0.11
 _ZN3Dtk6Widget13DSwitchButton10setCheckedEb@Base 2.0.11
 _ZN3Dtk6Widget13DSwitchButton11qt_metacallEN11QMetaObject4CallEiPPv@Base 2.0.11
 _ZN3Dtk6Widget13DSwitchButton11qt_metacastEPKc@Base 2.0.11
 _ZN3Dtk6Widget13DSwitchButton14checkedChangedEb@Base 2.0.11
 _ZN3Dtk6Widget13DSwitchButton15mousePressEventEP11QMouseEvent@Base 2.0.11
 _ZN3Dtk6Widget13DSwitchButton16staticMetaObjectE@Base 2.0.11
 _ZN3Dtk6Widget13DSwitchButton20setEnabledBackgroundE6QColor@Base 2.0.11
 _ZN3Dtk6Widget13DSwitchButton21setDisabledBackgroundE6QColor@Base 2.0.11
 _ZN3Dtk6Widget13DSwitchButtonC1EP7QWidget@Base 2.0.11
 _ZN3Dtk6Widget13DSwitchButtonC2EP7QWidget@Base 2.0.11
 _ZN3Dtk6Widget13DSwitchButtonD0Ev@Base 2.0.11
 _ZN3Dtk6Widget13DSwitchButtonD1Ev@Base 2.0.11
 _ZN3Dtk6Widget13DSwitchButtonD2Ev@Base 2.0.11
 _ZN3Dtk6Widget13DThemeManager11eventFilterEP7QObjectP6QEvent@Base 2.0.11
 _ZN3Dtk6Widget13DThemeManager11qt_metacallEN11QMetaObject4CallEiPPv@Base 2.0.11
 _ZN3Dtk6Widget13DThemeManager11qt_metacastEPKc@Base 2.0.11
 _ZN3Dtk6Widget13DThemeManager12themeChangedE7QString@Base 2.0.11
 _ZN3Dtk6Widget13DThemeManager14registerWidgetEP7QWidget11QStringList@Base 2.0.11
 _ZN3Dtk6Widget13DThemeManager14registerWidgetEP7QWidgetRK7QStringRK11QStringList@Base 2.0.11
 _ZN3Dtk6Widget13DThemeManager16staticMetaObjectE@Base 2.0.11
 _ZN3Dtk6Widget13DThemeManager18widgetThemeChangedEP7QWidget7QString@Base 2.0.11
 _ZN3Dtk6Widget13DThemeManager26updateThemeOnParentChangedEP7QWidget@Base 2.0.11
 _ZN3Dtk6Widget13DThemeManager8instanceEv@Base 2.0.11
 _ZN3Dtk6Widget13DThemeManager8setThemeE7QString@Base 2.0.11
 _ZN3Dtk6Widget13DThemeManager8setThemeEP7QWidget7QString@Base 2.0.11
 _ZN3Dtk6Widget13DThemeManager9updateQssEv@Base 2.0.11
 _ZN3Dtk6Widget13DThemeManagerC1Ev@Base 2.0.11
 _ZN3Dtk6Widget13DThemeManagerC2Ev@Base 2.0.11
 _ZN3Dtk6Widget13DThemeManagerD0Ev@Base 2.0.11
 _ZN3Dtk6Widget13DThemeManagerD1Ev@Base 2.0.11
 _ZN3Dtk6Widget13DThemeManagerD2Ev@Base 2.0.11
 _ZN3Dtk6Widget13DToastPrivate6initUIEv@Base 2.0.11
 _ZN3Dtk6Widget13DToastPrivateC1EPNS0_6DToastE@Base 2.0.11
 _ZN3Dtk6Widget13DToastPrivateC2EPNS0_6DToastE@Base 2.0.11
 _ZN3Dtk6Widget13DToastPrivateD0Ev@Base 2.0.11
 _ZN3Dtk6Widget13DToastPrivateD1Ev@Base 2.0.11
 _ZN3Dtk6Widget13DToastPrivateD2Ev@Base 2.0.11
 _ZN3Dtk6Widget13DTrashManager10cleanTrashEv@Base 2.0.11
 _ZN3Dtk6Widget13DTrashManager11moveToTrashERK7QStringb@Base 2.0.11
 _ZN3Dtk6Widget13DTrashManager8instanceEv@Base 2.0.11
 _ZN3Dtk6Widget13DTrashManagerC1Ev@Base 2.0.11
 _ZN3Dtk6Widget13DTrashManagerC2Ev@Base 2.0.11
 _ZN3Dtk6Widget13DTrashManagerD0Ev@Base 2.0.11
 _ZN3Dtk6Widget13DTrashManagerD1Ev@Base 2.0.11
 _ZN3Dtk6Widget13DTrashManagerD2Ev@Base 2.0.11
 _ZN3Dtk6Widget13select_eventsEP9_XDisplay@Base 2.0.11
 _ZN3Dtk6Widget14DDialogPrivate10updateSizeEv@Base 2.0.11
 _ZN3Dtk6Widget14DDialogPrivate16getContentLayoutEv@Base 2.0.11
 _ZN3Dtk6Widget14DDialogPrivate18_q_onButtonClickedEv@Base 2.0.11
 _ZN3Dtk6Widget14DDialogPrivate25_q_defaultButtonTriggeredEv@Base 2.0.11
 _ZN3Dtk6Widget14DDialogPrivate4initEv@Base 2.0.11
 _ZN3Dtk6Widget14DDialogPrivateC1EPNS0_7DDialogE@Base 2.0.11
 _ZN3Dtk6Widget14DDialogPrivateC2EPNS0_7DDialogE@Base 2.0.11
 _ZN3Dtk6Widget14DDialogPrivateD0Ev@Base 2.0.11
 _ZN3Dtk6Widget14DDialogPrivateD1Ev@Base 2.0.11
 _ZN3Dtk6Widget14DDialogPrivateD2Ev@Base 2.0.11
 _ZN3Dtk6Widget14DDoubleSpinBox11qt_metacallEN11QMetaObject4CallEiPPv@Base 2.0.11
 _ZN3Dtk6Widget14DDoubleSpinBox11qt_metacastEPKc@Base 2.0.11
 _ZN3Dtk6Widget14DDoubleSpinBox11resizeEventEP12QResizeEvent@Base 2.0.11
 _ZN3Dtk6Widget14DDoubleSpinBox12alertChangedEb@Base 2.0.11
 _ZN3Dtk6Widget14DDoubleSpinBox15setDefaultValueEd@Base 2.0.11
 _ZN3Dtk6Widget14DDoubleSpinBox16staticMetaObjectE@Base 2.0.11
 _ZN3Dtk6Widget14DDoubleSpinBox19defaultValueChangedEd@Base 2.0.11
 _ZN3Dtk6Widget14DDoubleSpinBox8setAlertEb@Base 2.0.11
 _ZN3Dtk6Widget14DDoubleSpinBoxC1EP7QWidget@Base 2.0.11
 _ZN3Dtk6Widget14DDoubleSpinBoxC2EP7QWidget@Base 2.0.11
 _ZN3Dtk6Widget14DDoubleSpinBoxD0Ev@Base 2.0.11
 _ZN3Dtk6Widget14DDoubleSpinBoxD1Ev@Base 2.0.11
 _ZN3Dtk6Widget14DDoubleSpinBoxD2Ev@Base 2.0.11
 _ZN3Dtk6Widget14DForeignWindow10pidChangedEv@Base 2.0.11
 _ZN3Dtk6Widget14DForeignWindow11qt_metacallEN11QMetaObject4CallEiPPv@Base 2.0.11
 _ZN3Dtk6Widget14DForeignWindow11qt_metacastEPKc@Base 2.0.11
 _ZN3Dtk6Widget14DForeignWindow14wmClassChangedEv@Base 2.0.11
 _ZN3Dtk6Widget14DForeignWindow16staticMetaObjectE@Base 2.0.11
 _ZN3Dtk6Widget14DForeignWindow5eventEP6QEvent@Base 2.0.11
 _ZN3Dtk6Widget14DForeignWindow9fromWinIdEy@Base 2.0.11
 _ZN3Dtk6Widget14DForeignWindowC1EP7QWindow@Base 2.0.11
 _ZN3Dtk6Widget14DForeignWindowC2EP7QWindow@Base 2.0.11
 _ZN3Dtk6Widget14DForeignWindowD0Ev@Base 2.0.11
 _ZN3Dtk6Widget14DForeignWindowD1Ev@Base 2.0.11
 _ZN3Dtk6Widget14DForeignWindowD2Ev@Base 2.0.11
 _ZN3Dtk6Widget14DOptionPrivate10setCheckedEb@Base 2.0.11
 _ZN3Dtk6Widget14DOptionPrivate11sizeChangedEP12QResizeEvent@Base 2.0.11
 _ZN3Dtk6Widget14DOptionPrivate14setCheckedIconERK7QString@Base 2.0.11
 _ZN3Dtk6Widget14DOptionPrivate4initEv@Base 2.0.11
 _ZN3Dtk6Widget14DOptionPrivate7setIconERK7QPixmap@Base 2.0.11
 _ZN3Dtk6Widget14DOptionPrivate7setIconERK7QString@Base 2.0.11
 _ZN3Dtk6Widget14DOptionPrivateC1EPNS0_7DOptionE@Base 2.0.11
 _ZN3Dtk6Widget14DOptionPrivateC2EPNS0_7DOptionE@Base 2.0.11
 _ZN3Dtk6Widget14DOptionPrivateD0Ev@Base 2.0.11
 _ZN3Dtk6Widget14DOptionPrivateD1Ev@Base 2.0.11
 _ZN3Dtk6Widget14DOptionPrivateD2Ev@Base 2.0.11
 _ZN3Dtk6Widget14DPageIndicator10paintEventEP11QPaintEvent@Base 2.0.11
 _ZN3Dtk6Widget14DPageIndicator11qt_metacallEN11QMetaObject4CallEiPPv@Base 2.0.11
 _ZN3Dtk6Widget14DPageIndicator11qt_metacastEPKc@Base 2.0.11
 _ZN3Dtk6Widget14DPageIndicator12previousPageEv@Base 2.0.11
 _ZN3Dtk6Widget14DPageIndicator12setPageCountEi@Base 2.0.11
 _ZN3Dtk6Widget14DPageIndicator13setPointColorE6QColor@Base 2.0.11
 _ZN3Dtk6Widget14DPageIndicator14setCurrentPageEi@Base 2.0.11
 _ZN3Dtk6Widget14DPageIndicator14setPointRadiusEi@Base 2.0.11
 _ZN3Dtk6Widget14DPageIndicator16setPointDistanceEi@Base 2.0.11
 _ZN3Dtk6Widget14DPageIndicator16staticMetaObjectE@Base 2.0.11
 _ZN3Dtk6Widget14DPageIndicator22setSecondaryPointColorE6QColor@Base 2.0.11
 _ZN3Dtk6Widget14DPageIndicator23setSecondaryPointRadiusEi@Base 2.0.11
 _ZN3Dtk6Widget14DPageIndicator8nextPageEv@Base 2.0.11
 _ZN3Dtk6Widget14DPageIndicatorC1EP7QWidget@Base 2.0.11
 _ZN3Dtk6Widget14DPageIndicatorC2EP7QWidget@Base 2.0.11
 _ZN3Dtk6Widget14DPageIndicatorD0Ev@Base 2.0.11
 _ZN3Dtk6Widget14DPageIndicatorD1Ev@Base 2.0.11
 _ZN3Dtk6Widget14DPageIndicatorD2Ev@Base 2.0.11
 _ZN3Dtk6Widget14DRegionMonitor11qt_metacallEN11QMetaObject4CallEiPPv@Base 2.0.11
 _ZN3Dtk6Widget14DRegionMonitor11qt_metacastEPKc@Base 2.0.11
 _ZN3Dtk6Widget14DRegionMonitor14registerRegionEv@Base 2.0.11
 _ZN3Dtk6Widget14DRegionMonitor16setWatchedRegionERK7QRegion@Base 2.0.11
 _ZN3Dtk6Widget14DRegionMonitor16staticMetaObjectE@Base 2.0.11
 _ZN3Dtk6Widget14DRegionMonitor16unregisterRegionEv@Base 2.0.11
 _ZN3Dtk6Widget14DRegionMonitor17setCoordinateTypeENS1_14CoordinateTypeE@Base 2.0.11
 _ZN3Dtk6Widget14DRegionMonitorC1EP7QObject@Base 2.0.11
 _ZN3Dtk6Widget14DRegionMonitorC2EP7QObject@Base 2.0.11
 _ZN3Dtk6Widget14DRegionMonitorD0Ev@Base 2.0.11
 _ZN3Dtk6Widget14DRegionMonitorD1Ev@Base 2.0.11
 _ZN3Dtk6Widget14DRegionMonitorD2Ev@Base 2.0.11
 _ZN3Dtk6Widget14DSliderPrivate16getScalePositionEi@Base 2.0.11
 _ZN3Dtk6Widget14DSuggestButton10paintEventEP11QPaintEvent@Base 2.0.11
 _ZN3Dtk6Widget14DSuggestButton11qt_metacallEN11QMetaObject4CallEiPPv@Base 2.0.11
 _ZN3Dtk6Widget14DSuggestButton11qt_metacastEPKc@Base 2.0.11
 _ZN3Dtk6Widget14DSuggestButton16staticMetaObjectE@Base 2.0.11
 _ZN3Dtk6Widget14DSuggestButtonC1EP7QWidget@Base 2.0.11
 _ZN3Dtk6Widget14DSuggestButtonC1ERK7QStringP7QWidget@Base 2.0.11
 _ZN3Dtk6Widget14DSuggestButtonC2EP7QWidget@Base 2.0.11
 _ZN3Dtk6Widget14DSuggestButtonC2ERK7QStringP7QWidget@Base 2.0.11
 _ZN3Dtk6Widget14DSuggestButtonD0Ev@Base 2.0.11
 _ZN3Dtk6Widget14DSuggestButtonD1Ev@Base 2.0.11
 _ZN3Dtk6Widget14DSuggestButtonD2Ev@Base 2.0.11
 _ZN3Dtk6Widget14DTabBarPrivate10FullWidget10paintEventEP11QPaintEvent@Base 2.0.11
 _ZN3Dtk6Widget14DTabBarPrivate10FullWidgetD0Ev@Base 2.0.11
 _ZN3Dtk6Widget14DTabBarPrivate10FullWidgetD1Ev@Base 2.0.11
 _ZN3Dtk6Widget14DTabBarPrivate10FullWidgetD2Ev@Base 2.0.11
 _ZN3Dtk6Widget14DTabBarPrivate10paintEventEP11QPaintEvent@Base 2.0.11
 _ZN3Dtk6Widget14DTabBarPrivate10tabRemovedEi@Base 2.0.11
 _ZN3Dtk6Widget14DTabBarPrivate11eventFilterEP7QObjectP6QEvent@Base 2.0.11
 _ZN3Dtk6Widget14DTabBarPrivate11makeVisibleEi@Base 2.0.11
 _ZN3Dtk6Widget14DTabBarPrivate11qt_metacallEN11QMetaObject4CallEiPPv@Base 2.0.11
 _ZN3Dtk6Widget14DTabBarPrivate11qt_metacastEPKc@Base 2.0.11
 _ZN3Dtk6Widget14DTabBarPrivate11tabInsertedEi@Base 2.0.11
 _ZN3Dtk6Widget14DTabBarPrivate13dragMoveEventEP14QDragMoveEvent@Base 2.0.11
 _ZN3Dtk6Widget14DTabBarPrivate13layoutWidgetsEi@Base 2.0.11
 _ZN3Dtk6Widget14DTabBarPrivate13startTabFlashEv@Base 2.0.11
 _ZN3Dtk6Widget14DTabBarPrivate14autoScrollTabsERK6QPoint@Base 2.0.11
 _ZN3Dtk6Widget14DTabBarPrivate14dragEnterEventEP15QDragEnterEvent@Base 2.0.11
 _ZN3Dtk6Widget14DTabBarPrivate14dragLeaveEventEP15QDragLeaveEvent@Base 2.0.11
 _ZN3Dtk6Widget14DTabBarPrivate14mouseMoveEventEP11QMouseEvent@Base 2.0.11
 _ZN3Dtk6Widget14DTabBarPrivate15TabBarAnimation11updateStateEN18QAbstractAnimation5StateES4_@Base 2.0.11
 _ZN3Dtk6Widget14DTabBarPrivate15TabBarAnimation18updateCurrentValueERK8QVariant@Base 2.0.11
 _ZN3Dtk6Widget14DTabBarPrivate15TabBarAnimationD0Ev@Base 2.0.11
 _ZN3Dtk6Widget14DTabBarPrivate15TabBarAnimationD1Ev@Base 2.0.11
 _ZN3Dtk6Widget14DTabBarPrivate15TabBarAnimationD2Ev@Base 2.0.11
 _ZN3Dtk6Widget14DTabBarPrivate15moveTabFinishedEi@Base 2.0.11
 _ZN3Dtk6Widget14DTabBarPrivate15setupMovableTabEv@Base 2.0.11
 _ZN3Dtk6Widget14DTabBarPrivate15tabLayoutChangeEv@Base 2.0.11
 _ZN3Dtk6Widget14DTabBarPrivate16setupDragableTabEv@Base 2.0.11
 _ZN3Dtk6Widget14DTabBarPrivate16staticMetaObjectE@Base 2.0.11
 _ZN3Dtk6Widget14DTabBarPrivate17mouseReleaseEventEP11QMouseEvent@Base 2.0.11
 _ZN3Dtk6Widget14DTabBarPrivate18stopAutoScrollTabsEv@Base 2.0.11
 _ZN3Dtk6Widget14DTabBarPrivate19setDragingFromOtherEb@Base 2.0.11
 _ZN3Dtk6Widget14DTabBarPrivate23tabInsertIndexFromMouseE6QPoint@Base 2.0.11
 _ZN3Dtk6Widget14DTabBarPrivate24updateMoveingTabPositionERK6QPoint@Base 2.0.11
 _ZN3Dtk6Widget14DTabBarPrivate25ensureScrollTabsAnimationEv@Base 2.0.11
 _ZN3Dtk6Widget14DTabBarPrivate5slideEii@Base 2.0.11
 _ZN3Dtk6Widget14DTabBarPrivate8stopMoveEv@Base 2.0.11
 _ZN3Dtk6Widget14DTabBarPrivate9dropEventEP10QDropEvent@Base 2.0.11
 _ZN3Dtk6Widget14DTabBarPrivate9layoutTabEi@Base 2.0.11
 _ZN3Dtk6Widget14DTabBarPrivate9showEventEP10QShowEvent@Base 2.0.11
 _ZN3Dtk6Widget14DTabBarPrivate9startDragEi@Base 2.0.11
 _ZN3Dtk6Widget14DTabBarPrivate9startMoveEi@Base 2.0.11
 _ZN3Dtk6Widget14DTabBarPrivateC1EPNS0_7DTabBarE@Base 2.0.11
 _ZN3Dtk6Widget14DTabBarPrivateC2EPNS0_7DTabBarE@Base 2.0.11
 _ZN3Dtk6Widget14DTabBarPrivateD0Ev@Base 2.0.11
 _ZN3Dtk6Widget14DTabBarPrivateD1Ev@Base 2.0.11
 _ZN3Dtk6Widget14DTabBarPrivateD2Ev@Base 2.0.11
 _ZN3Dtk6Widget14DTrashManager_D0Ev@Base 2.0.11
 _ZN3Dtk6Widget14DTrashManager_D1Ev@Base 2.0.11
 _ZN3Dtk6Widget14DTrashManager_D2Ev@Base 2.0.11
 _ZN3Dtk6Widget14DWaterProgress10paintEventEP11QPaintEvent@Base 2.0.11
 _ZN3Dtk6Widget14DWaterProgress11qt_metacallEN11QMetaObject4CallEiPPv@Base 2.0.11
 _ZN3Dtk6Widget14DWaterProgress11qt_metacastEPKc@Base 2.0.11
 _ZN3Dtk6Widget14DWaterProgress12valueChangedEv@Base 2.0.11
 _ZN3Dtk6Widget14DWaterProgress14setTextVisibleEb@Base 2.0.11
 _ZN3Dtk6Widget14DWaterProgress16staticMetaObjectE@Base 2.0.11
 _ZN3Dtk6Widget14DWaterProgress4stopEv@Base 2.0.11
 _ZN3Dtk6Widget14DWaterProgress5startEv@Base 2.0.11
 _ZN3Dtk6Widget14DWaterProgress8setValueEi@Base 2.0.11
 _ZN3Dtk6Widget14DWaterProgressC1EP7QWidget@Base 2.0.11
 _ZN3Dtk6Widget14DWaterProgressC2EP7QWidget@Base 2.0.11
 _ZN3Dtk6Widget14DWaterProgressD0Ev@Base 2.0.11
 _ZN3Dtk6Widget14DWaterProgressD1Ev@Base 2.0.11
 _ZN3Dtk6Widget14DWaterProgressD2Ev@Base 2.0.11
 _ZN3Dtk6Widget14xinput_versionEP9_XDisplay@Base 2.0.11
 _ZN3Dtk6Widget15ArrowButtonIcon11qt_metacallEN11QMetaObject4CallEiPPv@Base 2.0.11
 _ZN3Dtk6Widget15ArrowButtonIcon11qt_metacastEPKc@Base 2.0.11
 _ZN3Dtk6Widget15ArrowButtonIcon14setButtonStateEi@Base 2.0.11
 _ZN3Dtk6Widget15ArrowButtonIcon16staticMetaObjectE@Base 2.0.11
 _ZN3Dtk6Widget15ArrowButtonIcon17setArrowDirectionEi@Base 2.0.11
 _ZN3Dtk6Widget15ArrowButtonIconC1EP7QWidget@Base 2.0.11
 _ZN3Dtk6Widget15ArrowButtonIconC2EP7QWidget@Base 2.0.11
 _ZN3Dtk6Widget15ArrowButtonIconD0Ev@Base 2.0.11
 _ZN3Dtk6Widget15ArrowButtonIconD1Ev@Base 2.0.11
 _ZN3Dtk6Widget15ArrowButtonIconD2Ev@Base 2.0.11
 _ZN3Dtk6Widget15ArrowHeaderLine10mousePressEv@Base 2.0.11
 _ZN3Dtk6Widget15ArrowHeaderLine11qt_metacallEN11QMetaObject4CallEiPPv@Base 2.0.11
 _ZN3Dtk6Widget15ArrowHeaderLine11qt_metacastEPKc@Base 2.0.11
 _ZN3Dtk6Widget15ArrowHeaderLine15mousePressEventEP11QMouseEvent@Base 2.0.11
 _ZN3Dtk6Widget15ArrowHeaderLine16staticMetaObjectE@Base 2.0.11
 _ZN3Dtk6Widget15ArrowHeaderLine21reverseArrowDirectionEv@Base 2.0.11
 _ZN3Dtk6Widget15ArrowHeaderLine9setExpandEb@Base 2.0.11
 _ZN3Dtk6Widget15ArrowHeaderLineC1EP7QWidget@Base 2.0.11
 _ZN3Dtk6Widget15ArrowHeaderLineC2EP7QWidget@Base 2.0.11
 _ZN3Dtk6Widget15ArrowHeaderLineD0Ev@Base 2.0.11
 _ZN3Dtk6Widget15ArrowHeaderLineD1Ev@Base 2.0.11
 _ZN3Dtk6Widget15ArrowHeaderLineD2Ev@Base 2.0.11
 _ZN3Dtk6Widget15DAbstractDialog10paintEventEP11QPaintEvent@Base 2.0.11
 _ZN3Dtk6Widget15DAbstractDialog11qt_metacallEN11QMetaObject4CallEiPPv@Base 2.0.11
 _ZN3Dtk6Widget15DAbstractDialog11qt_metacastEPKc@Base 2.0.11
 _ZN3Dtk6Widget15DAbstractDialog11resizeEventEP12QResizeEvent@Base 2.0.11
 _ZN3Dtk6Widget15DAbstractDialog11setGeometryERK5QRect@Base 2.0.11
 _ZN3Dtk6Widget15DAbstractDialog11sizeChangedE5QSize@Base 2.0.11
 _ZN3Dtk6Widget15DAbstractDialog12moveToCenterEv@Base 2.0.11
 _ZN3Dtk6Widget15DAbstractDialog14mouseMoveEventEP11QMouseEvent@Base 2.0.11
 _ZN3Dtk6Widget15DAbstractDialog14moveToTopRightEv@Base 2.0.11
 _ZN3Dtk6Widget15DAbstractDialog14setBorderColorE6QColor@Base 2.0.11
 _ZN3Dtk6Widget15DAbstractDialog15mousePressEventEP11QMouseEvent@Base 2.0.11
 _ZN3Dtk6Widget15DAbstractDialog16staticMetaObjectE@Base 2.0.11
 _ZN3Dtk6Widget15DAbstractDialog17mouseReleaseEventEP11QMouseEvent@Base 2.0.11
 _ZN3Dtk6Widget15DAbstractDialog18moveToCenterByRectERK5QRect@Base 2.0.11
 _ZN3Dtk6Widget15DAbstractDialog18setBackgroundColorE6QColor@Base 2.0.11
 _ZN3Dtk6Widget15DAbstractDialog18setDisplayPositionENS1_15DisplayPositionE@Base 2.0.11
 _ZN3Dtk6Widget15DAbstractDialog20moveToTopRightByRectERK5QRect@Base 2.0.11
 _ZN3Dtk6Widget15DAbstractDialog4moveERK6QPoint@Base 2.0.11
 _ZN3Dtk6Widget15DAbstractDialog9showEventEP10QShowEvent@Base 2.0.11
 _ZN3Dtk6Widget15DAbstractDialogC1EP7QWidget@Base 2.0.11
 _ZN3Dtk6Widget15DAbstractDialogC1ERNS0_22DAbstractDialogPrivateEP7QWidget@Base 2.0.11
 _ZN3Dtk6Widget15DAbstractDialogC2EP7QWidget@Base 2.0.11
 _ZN3Dtk6Widget15DAbstractDialogC2ERNS0_22DAbstractDialogPrivateEP7QWidget@Base 2.0.11
 _ZN3Dtk6Widget15DAbstractDialogD0Ev@Base 2.0.11
 _ZN3Dtk6Widget15DAbstractDialogD1Ev@Base 2.0.11
 _ZN3Dtk6Widget15DAbstractDialogD2Ev@Base 2.0.11
 _ZN3Dtk6Widget15DArrowRectangle10paintEventEP11QPaintEvent@Base 2.0.11
 _ZN3Dtk6Widget15DArrowRectangle10setContentEP7QWidget@Base 2.0.11
 _ZN3Dtk6Widget15DArrowRectangle11qt_metacallEN11QMetaObject4CallEiPPv@Base 2.0.11
 _ZN3Dtk6Widget15DArrowRectangle11qt_metacastEPKc@Base 2.0.11
 _ZN3Dtk6Widget15DArrowRectangle11resizeEventEP12QResizeEvent@Base 2.0.11
 _ZN3Dtk6Widget15DArrowRectangle12getFixedSizeEv@Base 2.0.11
 _ZN3Dtk6Widget15DArrowRectangle13setArrowWidthEi@Base 2.0.11
 _ZN3Dtk6Widget15DArrowRectangle14setArrowHeightEi@Base 2.0.11
 _ZN3Dtk6Widget15DArrowRectangle14setBorderColorERK6QColor@Base 2.0.11
 _ZN3Dtk6Widget15DArrowRectangle14setBorderWidthEi@Base 2.0.11
 _ZN3Dtk6Widget15DArrowRectangle16setShadowXOffsetERKd@Base 2.0.11
 _ZN3Dtk6Widget15DArrowRectangle16setShadowYOffsetERKd@Base 2.0.11
 _ZN3Dtk6Widget15DArrowRectangle16staticMetaObjectE@Base 2.0.11
 _ZN3Dtk6Widget15DArrowRectangle17resizeWithContentEv@Base 2.0.11
 _ZN3Dtk6Widget15DArrowRectangle17setArrowDirectionENS1_14ArrowDirectionE@Base 2.0.11
 _ZN3Dtk6Widget15DArrowRectangle18setBackgroundColorENS0_17DBlurEffectWidget13MaskColorTypeE@Base 2.0.11
 _ZN3Dtk6Widget15DArrowRectangle18setBackgroundColorERK6QColor@Base 2.0.11
 _ZN3Dtk6Widget15DArrowRectangle19setShadowBlurRadiusERKd@Base 2.0.11
 _ZN3Dtk6Widget15DArrowRectangle4moveEii@Base 2.0.11
 _ZN3Dtk6Widget15DArrowRectangle4showEii@Base 2.0.11
 _ZN3Dtk6Widget15DArrowRectangle5eventEP6QEvent@Base 2.0.11
 _ZN3Dtk6Widget15DArrowRectangle8setWidthEi@Base 2.0.11
 _ZN3Dtk6Widget15DArrowRectangle9setArrowXEi@Base 2.0.11
 _ZN3Dtk6Widget15DArrowRectangle9setArrowYEi@Base 2.0.11
 _ZN3Dtk6Widget15DArrowRectangle9setHeightEi@Base 2.0.11
 _ZN3Dtk6Widget15DArrowRectangle9setMarginEi@Base 2.0.11
 _ZN3Dtk6Widget15DArrowRectangle9setRadiusEi@Base 2.0.11
 _ZN3Dtk6Widget15DArrowRectangleC1ENS1_14ArrowDirectionENS1_9FloatModeEP7QWidget@Base 2.0.11
 _ZN3Dtk6Widget15DArrowRectangleC1ENS1_14ArrowDirectionEP7QWidget@Base 2.0.11
 _ZN3Dtk6Widget15DArrowRectangleC2ENS1_14ArrowDirectionENS1_9FloatModeEP7QWidget@Base 2.0.11
 _ZN3Dtk6Widget15DArrowRectangleC2ENS1_14ArrowDirectionEP7QWidget@Base 2.0.11
 _ZN3Dtk6Widget15DArrowRectangleD0Ev@Base 2.0.11
 _ZN3Dtk6Widget15DArrowRectangleD1Ev@Base 2.0.11
 _ZN3Dtk6Widget15DArrowRectangleD2Ev@Base 2.0.11
 _ZN3Dtk6Widget15DCircleProgress10enterEventEP6QEvent@Base 2.0.11
 _ZN3Dtk6Widget15DCircleProgress10leaveEventEP6QEvent@Base 2.0.11
 _ZN3Dtk6Widget15DCircleProgress10paintEventEP11QPaintEvent@Base 2.0.11
 _ZN3Dtk6Widget15DCircleProgress11bottomLabelEv@Base 2.0.11
 _ZN3Dtk6Widget15DCircleProgress11mouseLeavedEv@Base 2.0.11
 _ZN3Dtk6Widget15DCircleProgress11qt_metacallEN11QMetaObject4CallEiPPv@Base 2.0.11
 _ZN3Dtk6Widget15DCircleProgress11qt_metacastEPKc@Base 2.0.11
 _ZN3Dtk6Widget15DCircleProgress12mouseEnteredEv@Base 2.0.11
 _ZN3Dtk6Widget15DCircleProgress12setLineWidthEi@Base 2.0.11
 _ZN3Dtk6Widget15DCircleProgress13setChunkColorERK6QColor@Base 2.0.11
 _ZN3Dtk6Widget15DCircleProgress16staticMetaObjectE@Base 2.0.11
 _ZN3Dtk6Widget15DCircleProgress17mouseReleaseEventEP11QMouseEvent@Base 2.0.11
 _ZN3Dtk6Widget15DCircleProgress18setBackgroundColorERK6QColor@Base 2.0.11
 _ZN3Dtk6Widget15DCircleProgress7clickedEv@Base 2.0.11
 _ZN3Dtk6Widget15DCircleProgress7setTextERK7QString@Base 2.0.11
 _ZN3Dtk6Widget15DCircleProgress8setValueEi@Base 2.0.11
 _ZN3Dtk6Widget15DCircleProgress8topLabelEv@Base 2.0.11
 _ZN3Dtk6Widget15DCircleProgressC1EP7QWidget@Base 2.0.11
 _ZN3Dtk6Widget15DCircleProgressC2EP7QWidget@Base 2.0.11
 _ZN3Dtk6Widget15DCircleProgressD0Ev@Base 2.0.11
 _ZN3Dtk6Widget15DCircleProgressD1Ev@Base 2.0.11
 _ZN3Dtk6Widget15DCircleProgressD2Ev@Base 2.0.11
 _ZN3Dtk6Widget15DEnhancedWidget10setEnabledEb@Base 2.0.11
 _ZN3Dtk6Widget15DEnhancedWidget11eventFilterEP7QObjectP6QEvent@Base 2.0.11
 _ZN3Dtk6Widget15DEnhancedWidget11qt_metacallEN11QMetaObject4CallEiPPv@Base 2.0.11
 _ZN3Dtk6Widget15DEnhancedWidget11qt_metacastEPKc@Base 2.0.11
 _ZN3Dtk6Widget15DEnhancedWidget11sizeChangedERK5QSize@Base 2.0.11
 _ZN3Dtk6Widget15DEnhancedWidget12widthChangedEi@Base 2.0.11
 _ZN3Dtk6Widget15DEnhancedWidget13heightChangedEi@Base 2.0.11
 _ZN3Dtk6Widget15DEnhancedWidget13targetChangedEP7QWidget@Base 2.0.11
 _ZN3Dtk6Widget15DEnhancedWidget14enabledChangedEb@Base 2.0.11
 _ZN3Dtk6Widget15DEnhancedWidget15positionChangedERK6QPoint@Base 2.0.11
 _ZN3Dtk6Widget15DEnhancedWidget16staticMetaObjectE@Base 2.0.11
 _ZN3Dtk6Widget15DEnhancedWidget6showedEv@Base 2.0.11
 _ZN3Dtk6Widget15DEnhancedWidget8xChangedEi@Base 2.0.11
 _ZN3Dtk6Widget15DEnhancedWidget8yChangedEi@Base 2.0.11
 _ZN3Dtk6Widget15DEnhancedWidget9setTargetEP7QWidget@Base 2.0.11
 _ZN3Dtk6Widget15DEnhancedWidgetC1EP7QWidgetP7QObject@Base 2.0.11
 _ZN3Dtk6Widget15DEnhancedWidgetC1EPNS0_22DEnhancedWidgetPrivateEP7QWidgetP7QObject@Base 2.0.11
 _ZN3Dtk6Widget15DEnhancedWidgetC2EP7QWidgetP7QObject@Base 2.0.11
 _ZN3Dtk6Widget15DEnhancedWidgetC2EPNS0_22DEnhancedWidgetPrivateEP7QWidgetP7QObject@Base 2.0.11
 _ZN3Dtk6Widget15DEnhancedWidgetD0Ev@Base 2.0.11
 _ZN3Dtk6Widget15DEnhancedWidgetD1Ev@Base 2.0.11
 _ZN3Dtk6Widget15DEnhancedWidgetD2Ev@Base 2.0.11
 _ZN3Dtk6Widget15DSettingsDialog11qt_metacallEN11QMetaObject4CallEiPPv@Base 2.0.11
 _ZN3Dtk6Widget15DSettingsDialog11qt_metacastEPKc@Base 2.0.11
 _ZN3Dtk6Widget15DSettingsDialog14updateSettingsEPNS_4Core9DSettingsE@Base 2.0.11
 _ZN3Dtk6Widget15DSettingsDialog14updateSettingsERK10QByteArrayPNS_4Core9DSettingsE@Base 2.0.11
 _ZN3Dtk6Widget15DSettingsDialog16staticMetaObjectE@Base 2.0.11
 _ZN3Dtk6Widget15DSettingsDialogC1EP7QWidget@Base 2.0.11
 _ZN3Dtk6Widget15DSettingsDialogC2EP7QWidget@Base 2.0.11
 _ZN3Dtk6Widget15DSettingsDialogD0Ev@Base 2.0.11
 _ZN3Dtk6Widget15DSettingsDialogD1Ev@Base 2.0.11
 _ZN3Dtk6Widget15DSettingsDialogD2Ev@Base 2.0.11
 _ZN3Dtk6Widget15DSimpleListItem11qt_metacallEN11QMetaObject4CallEiPPv@Base 2.0.11
 _ZN3Dtk6Widget15DSimpleListItem11qt_metacastEPKc@Base 2.0.11
 _ZN3Dtk6Widget15DSimpleListItem16staticMetaObjectE@Base 2.0.11
 _ZN3Dtk6Widget15DSimpleListItemC1Ev@Base 2.0.11
 _ZN3Dtk6Widget15DSimpleListItemC2Ev@Base 2.0.11
 _ZN3Dtk6Widget15DSimpleListView10clearItemsEv@Base 2.0.11
 _ZN3Dtk6Widget15DSimpleListView10leaveEventEP6QEvent@Base 2.0.11
 _ZN3Dtk6Widget15DSimpleListView10paintEventEP11QPaintEvent@Base 2.0.11
 _ZN3Dtk6Widget15DSimpleListView10removeItemEPNS0_15DSimpleListItemE@Base 2.0.11
 _ZN3Dtk6Widget15DSimpleListView10wheelEventEP11QWheelEvent@Base 2.0.11
 _ZN3Dtk6Widget15DSimpleListView11eventFilterEP7QObjectP6QEvent@Base 2.0.11
 _ZN3Dtk6Widget15DSimpleListView11qt_metacallEN11QMetaObject4CallEiPPv@Base 2.0.11
 _ZN3Dtk6Widget15DSimpleListView11qt_metacastEPKc@Base 2.0.11
 _ZN3Dtk6Widget15DSimpleListView12refreshItemsE5QListIPNS0_15DSimpleListItemEE@Base 2.0.11
 _ZN3Dtk6Widget15DSimpleListView12scrollPageUpEv@Base 2.0.11
 _ZN3Dtk6Widget15DSimpleListView12setRowHeightEi@Base 2.0.11
 _ZN3Dtk6Widget15DSimpleListView13addSelectionsE5QListIPNS0_15DSimpleListItemEEb@Base 2.0.11
 _ZN3Dtk6Widget15DSimpleListView13getScrollbarYEv@Base 2.0.11
 _ZN3Dtk6Widget15DSimpleListView13getSelectionsEv@Base 2.0.11
 _ZN3Dtk6Widget15DSimpleListView13hideScrollbarEv@Base 2.0.11
 _ZN3Dtk6Widget15DSimpleListView13keyPressEventEP9QKeyEvent@Base 2.0.11
 _ZN3Dtk6Widget15DSimpleListView13setClipRadiusEi@Base 2.0.11
 _ZN3Dtk6Widget15DSimpleListView14mouseMoveEventEP11QMouseEvent@Base 2.0.11
 _ZN3Dtk6Widget15DSimpleListView14paintScrollbarEP8QPainter@Base 2.0.11
 _ZN3Dtk6Widget15DSimpleListView14scrollPageDownEv@Base 2.0.11
 _ZN3Dtk6Widget15DSimpleListView14selectAllItemsEv@Base 2.0.11
 _ZN3Dtk6Widget15DSimpleListView14selectLastItemEv@Base 2.0.11
 _ZN3Dtk6Widget15DSimpleListView14selectNextItemEv@Base 2.0.11
 _ZN3Dtk6Widget15DSimpleListView14selectPrevItemEv@Base 2.0.11
 _ZN3Dtk6Widget15DSimpleListView15changeHoverItemE6QPointPNS0_15DSimpleListItemEi@Base 2.0.11
 _ZN3Dtk6Widget15DSimpleListView15clearSelectionsEb@Base 2.0.11
 _ZN3Dtk6Widget15DSimpleListView15ctrlScrollToEndEv@Base 2.0.11
 _ZN3Dtk6Widget15DSimpleListView15getRenderWidthsEv@Base 2.0.11
 _ZN3Dtk6Widget15DSimpleListView15mousePressEventEP11QMouseEvent@Base 2.0.11
 _ZN3Dtk6Widget15DSimpleListView15rightClickItemsE6QPoint5QListIPNS0_15DSimpleListItemEE@Base 2.0.11
 _ZN3Dtk6Widget15DSimpleListView15selectFirstItemEv@Base 2.0.11
 _ZN3Dtk6Widget15DSimpleListView15setSingleSelectEb@Base 2.0.11
 _ZN3Dtk6Widget15DSimpleListView16ctrlScrollPageUpEv@Base 2.0.11
 _ZN3Dtk6Widget15DSimpleListView16ctrlScrollToHomeEv@Base 2.0.11
 _ZN3Dtk6Widget15DSimpleListView16shiftSelectToEndEv@Base 2.0.11
 _ZN3Dtk6Widget15DSimpleListView16staticMetaObjectE@Base 2.0.11
 _ZN3Dtk6Widget15DSimpleListView17mouseHoverChangedEPNS0_15DSimpleListItemES3_i6QPoint@Base 2.0.11
 _ZN3Dtk6Widget15DSimpleListView17mousePressChangedEPNS0_15DSimpleListItemEi6QPoint@Base 2.0.11
 _ZN3Dtk6Widget15DSimpleListView17mouseReleaseEventEP11QMouseEvent@Base 2.0.11
 _ZN3Dtk6Widget15DSimpleListView17shiftSelectPageUpEv@Base 2.0.11
 _ZN3Dtk6Widget15DSimpleListView17shiftSelectToHomeEv@Base 2.0.11
 _ZN3Dtk6Widget15DSimpleListView17shiftSelectToNextEv@Base 2.0.11
 _ZN3Dtk6Widget15DSimpleListView17shiftSelectToPrevEv@Base 2.0.11
 _ZN3Dtk6Widget15DSimpleListView18adjustRenderOffsetEi@Base 2.0.11
 _ZN3Dtk6Widget15DSimpleListView18ctrlScrollPageDownEv@Base 2.0.11
 _ZN3Dtk6Widget15DSimpleListView18getScrollbarHeightEv@Base 2.0.11
 _ZN3Dtk6Widget15DSimpleListView18isMouseAtTitleAreaEi@Base 2.0.11
 _ZN3Dtk6Widget15DSimpleListView18setColumnHideFlagsE5QListIbEi@Base 2.0.11
 _ZN3Dtk6Widget15DSimpleListView18setColumnTitleInfoE5QListI7QStringES2_IiEi@Base 2.0.11
 _ZN3Dtk6Widget15DSimpleListView18setSearchAlgorithmEPFbPKNS0_15DSimpleListItemE7QStringE@Base 2.0.11
 _ZN3Dtk6Widget15DSimpleListView19changeColumnVisibleEib5QListIbE@Base 2.0.11
 _ZN3Dtk6Widget15DSimpleListView19changeSortingStatusEib@Base 2.0.11
 _ZN3Dtk6Widget15DSimpleListView19getScrollAreaHeightEv@Base 2.0.11
 _ZN3Dtk6Widget15DSimpleListView19isMouseAtScrollAreaEi@Base 2.0.11
 _ZN3Dtk6Widget15DSimpleListView19mouseReleaseChangedEPNS0_15DSimpleListItemEi6QPoint@Base 2.0.11
 _ZN3Dtk6Widget15DSimpleListView19shiftSelectPageDownEv@Base 2.0.11
 _ZN3Dtk6Widget15DSimpleListView21getBottomRenderOffsetEv@Base 2.0.11
 _ZN3Dtk6Widget15DSimpleListView23startScrollbarHideTimerEv@Base 2.0.11
 _ZN3Dtk6Widget15DSimpleListView24keepSelectWhenClickBlankEb@Base 2.0.11
 _ZN3Dtk6Widget15DSimpleListView24selectNextItemWithOffsetEi@Base 2.0.11
 _ZN3Dtk6Widget15DSimpleListView24selectPrevItemWithOffsetEi@Base 2.0.11
 _ZN3Dtk6Widget15DSimpleListView25shiftSelectItemsWithBoundEii@Base 2.0.11
 _ZN3Dtk6Widget15DSimpleListView26setColumnSortingAlgorithmsEP5QListIPFbPKNS0_15DSimpleListItemES5_bEEib@Base 2.0.11
 _ZN3Dtk6Widget15DSimpleListView29shiftSelectNextItemWithOffsetEi@Base 2.0.11
 _ZN3Dtk6Widget15DSimpleListView29shiftSelectPrevItemWithOffsetEi@Base 2.0.11
 _ZN3Dtk6Widget15DSimpleListView6searchE7QString@Base 2.0.11
 _ZN3Dtk6Widget15DSimpleListView8addItemsE5QListIPNS0_15DSimpleListItemEE@Base 2.0.11
 _ZN3Dtk6Widget15DSimpleListView8setFrameEb6QColord@Base 2.0.11
 _ZN3Dtk6Widget15DSimpleListViewC1EP7QWidget@Base 2.0.11
 _ZN3Dtk6Widget15DSimpleListViewC2EP7QWidget@Base 2.0.11
 _ZN3Dtk6Widget15DSimpleListViewD0Ev@Base 2.0.11
 _ZN3Dtk6Widget15DSimpleListViewD1Ev@Base 2.0.11
 _ZN3Dtk6Widget15DSimpleListViewD2Ev@Base 2.0.11
 _ZN3Dtk6Widget15DSpinBoxPrivate20_q_resizeInsideFrameERK5QSize@Base 2.0.11
 _ZN3Dtk6Widget15DSpinBoxPrivate4initEv@Base 2.0.11
 _ZN3Dtk6Widget15DSpinBoxPrivateC1EPNS0_8DSpinBoxE@Base 2.0.11
 _ZN3Dtk6Widget15DSpinBoxPrivateC2EPNS0_8DSpinBoxE@Base 2.0.11
 _ZN3Dtk6Widget15DSpinBoxPrivateD0Ev@Base 2.0.11
 _ZN3Dtk6Widget15DSpinBoxPrivateD1Ev@Base 2.0.11
 _ZN3Dtk6Widget15DSpinBoxPrivateD2Ev@Base 2.0.11
 _ZN3Dtk6Widget15DSpinnerPrivate31createDefaultIndicatorColorListE6QColor@Base 2.0.11
 _ZN3Dtk6Widget15DSpinnerPrivateC1EPNS0_8DSpinnerE@Base 2.0.11
 _ZN3Dtk6Widget15DSpinnerPrivateC2EPNS0_8DSpinnerE@Base 2.0.11
 _ZN3Dtk6Widget15DSpinnerPrivateD0Ev@Base 2.0.11
 _ZN3Dtk6Widget15DSpinnerPrivateD1Ev@Base 2.0.11
 _ZN3Dtk6Widget15DSpinnerPrivateD2Ev@Base 2.0.11
 _ZN3Dtk6Widget15DtkBuildVersion5valueE@Base 2.0.11
 _ZN3Dtk6Widget15EnvReplaceGuardC1Ei@Base 2.0.11
 _ZN3Dtk6Widget15EnvReplaceGuardC2Ei@Base 2.0.11
 _ZN3Dtk6Widget15EnvReplaceGuardD1Ev@Base 2.0.11
 _ZN3Dtk6Widget15EnvReplaceGuardD2Ev@Base 2.0.11
 _ZN3Dtk6Widget15FilterMouseMove11eventFilterEP7QObjectP6QEvent@Base 2.0.11
 _ZN3Dtk6Widget15FilterMouseMove11qt_metacallEN11QMetaObject4CallEiPPv@Base 2.0.11
 _ZN3Dtk6Widget15FilterMouseMove11qt_metacastEPKc@Base 2.0.11
 _ZN3Dtk6Widget15FilterMouseMove16staticMetaObjectE@Base 2.0.11
 _ZN3Dtk6Widget15FilterMouseMoveC1EP7QObject@Base 2.0.11
 _ZN3Dtk6Widget15FilterMouseMoveC2EP7QObject@Base 2.0.11
 _ZN3Dtk6Widget15FilterMouseMoveD0Ev@Base 2.0.11
 _ZN3Dtk6Widget15FilterMouseMoveD1Ev@Base 2.0.11
 _ZN3Dtk6Widget15FilterMouseMoveD2Ev@Base 2.0.11
 _ZN3Dtk6Widget16DArrowLineExpand10headerLineEv@Base 2.0.11
 _ZN3Dtk6Widget16DArrowLineExpand11qt_metacallEN11QMetaObject4CallEiPPv@Base 2.0.11
 _ZN3Dtk6Widget16DArrowLineExpand11qt_metacastEPKc@Base 2.0.11
 _ZN3Dtk6Widget16DArrowLineExpand11resizeEventEP12QResizeEvent@Base 2.0.11
 _ZN3Dtk6Widget16DArrowLineExpand16staticMetaObjectE@Base 2.0.11
 _ZN3Dtk6Widget16DArrowLineExpand8setTitleERK7QString@Base 2.0.11
 _ZN3Dtk6Widget16DArrowLineExpand9setExpandEb@Base 2.0.11
 _ZN3Dtk6Widget16DArrowLineExpand9setHeaderEP7QWidget@Base 2.0.11
 _ZN3Dtk6Widget16DArrowLineExpandC1EP7QWidget@Base 2.0.11
 _ZN3Dtk6Widget16DArrowLineExpandC2EP7QWidget@Base 2.0.11
 _ZN3Dtk6Widget16DArrowLineExpandD0Ev@Base 2.0.11
 _ZN3Dtk6Widget16DArrowLineExpandD1Ev@Base 2.0.11
 _ZN3Dtk6Widget16DArrowLineExpandD2Ev@Base 2.0.11
 _ZN3Dtk6Widget16DCrumbTextFormat11setTagColorERK6QColor@Base 2.0.11
 _ZN3Dtk6Widget16DCrumbTextFormat12setTextColorERK6QColor@Base 2.0.11
 _ZN3Dtk6Widget16DCrumbTextFormat13setBackgroundERK6QBrush@Base 2.0.11
 _ZN3Dtk6Widget16DCrumbTextFormat19setBackgroundRadiusEi@Base 2.0.11
 _ZN3Dtk6Widget16DCrumbTextFormat7setTextERK7QString@Base 2.0.11
 _ZN3Dtk6Widget16DCrumbTextFormatC1ERK11QTextFormat@Base 2.0.11
 _ZN3Dtk6Widget16DCrumbTextFormatC1Ei@Base 2.0.11
 _ZN3Dtk6Widget16DCrumbTextFormatC1Ev@Base 2.0.11
 _ZN3Dtk6Widget16DCrumbTextFormatC2ERK11QTextFormat@Base 2.0.11
 _ZN3Dtk6Widget16DCrumbTextFormatC2Ei@Base 2.0.11
 _ZN3Dtk6Widget16DCrumbTextFormatC2Ev@Base 2.0.11
 _ZN3Dtk6Widget16DDesktopServices10showFolderE4QUrlRK7QString@Base 2.0.11
 _ZN3Dtk6Widget16DDesktopServices10showFolderE7QStringRKS2_@Base 2.0.11
 _ZN3Dtk6Widget16DDesktopServices11showFoldersE5QListI4QUrlERK7QString@Base 2.0.11
 _ZN3Dtk6Widget16DDesktopServices11showFoldersE5QListI7QStringERKS3_@Base 2.0.11
 _ZN3Dtk6Widget16DDesktopServices12errorMessageEv@Base 2.0.11
 _ZN3Dtk6Widget16DDesktopServices12showFileItemE4QUrlRK7QString@Base 2.0.11
 _ZN3Dtk6Widget16DDesktopServices12showFileItemE7QStringRKS2_@Base 2.0.11
 _ZN3Dtk6Widget16DDesktopServices13showFileItemsE5QListI4QUrlERK7QString@Base 2.0.11
 _ZN3Dtk6Widget16DDesktopServices13showFileItemsE5QListI7QStringERKS3_@Base 2.0.11
 _ZN3Dtk6Widget16DDesktopServices19getNameByEffectTypeERKNS1_17SystemSoundEffectE@Base 2.0.11
 _ZN3Dtk6Widget16DDesktopServices21playSystemSoundEffectERK7QString@Base 2.0.11
 _ZN3Dtk6Widget16DDesktopServices21playSystemSoundEffectERKNS1_17SystemSoundEffectE@Base 2.0.11
 _ZN3Dtk6Widget16DDesktopServices21showFileItemPropertieE4QUrlRK7QString@Base 2.0.11
 _ZN3Dtk6Widget16DDesktopServices21showFileItemPropertieE7QStringRKS2_@Base 2.0.11
 _ZN3Dtk6Widget16DDesktopServices22showFileItemPropertiesE5QListI4QUrlERK7QString@Base 2.0.11
 _ZN3Dtk6Widget16DDesktopServices22showFileItemPropertiesE5QListI7QStringERKS3_@Base 2.0.11
 _ZN3Dtk6Widget16DDesktopServices24previewSystemSoundEffectERK7QString@Base 2.0.11
 _ZN3Dtk6Widget16DDesktopServices24previewSystemSoundEffectERKNS1_17SystemSoundEffectE@Base 2.0.11
 _ZN3Dtk6Widget16DDesktopServices5trashE4QUrl@Base 2.0.11
 _ZN3Dtk6Widget16DDesktopServices5trashE5QListI4QUrlE@Base 2.0.11
 _ZN3Dtk6Widget16DDesktopServices5trashE5QListI7QStringE@Base 2.0.11
 _ZN3Dtk6Widget16DDesktopServices5trashE7QString@Base 2.0.11
 _ZN3Dtk6Widget16DFileChooserEdit11fileChoosedERK7QString@Base 2.0.11
 _ZN3Dtk6Widget16DFileChooserEdit11qt_metacallEN11QMetaObject4CallEiPPv@Base 2.0.11
 _ZN3Dtk6Widget16DFileChooserEdit11qt_metacastEPKc@Base 2.0.11
 _ZN3Dtk6Widget16DFileChooserEdit11setFileModeEN11QFileDialog8FileModeE@Base 2.0.11
 _ZN3Dtk6Widget16DFileChooserEdit12dialogClosedEi@Base 2.0.11
 _ZN3Dtk6Widget16DFileChooserEdit12dialogOpenedEv@Base 2.0.11
 _ZN3Dtk6Widget16DFileChooserEdit14setNameFiltersERK11QStringList@Base 2.0.11
 _ZN3Dtk6Widget16DFileChooserEdit16staticMetaObjectE@Base 2.0.11
 _ZN3Dtk6Widget16DFileChooserEdit24setDialogDisplayPositionENS1_21DialogDisplayPositionE@Base 2.0.11
 _ZN3Dtk6Widget16DFileChooserEditC1EP7QWidget@Base 2.0.11
 _ZN3Dtk6Widget16DFileChooserEditC2EP7QWidget@Base 2.0.11
 _ZN3Dtk6Widget16DFileChooserEditD0Ev@Base 2.0.11
 _ZN3Dtk6Widget16DFileChooserEditD1Ev@Base 2.0.11
 _ZN3Dtk6Widget16DFileChooserEditD2Ev@Base 2.0.11
 _ZN3Dtk6Widget16DKeyboardMonitor11isNumlockOnEv@Base 2.0.11
 _ZN3Dtk6Widget16DKeyboardMonitor11qt_metacallEN11QMetaObject4CallEiPPv@Base 2.0.11
 _ZN3Dtk6Widget16DKeyboardMonitor11qt_metacastEPKc@Base 2.0.11
 _ZN3Dtk6Widget16DKeyboardMonitor12isCapslockOnEv@Base 2.0.11
 _ZN3Dtk6Widget16DKeyboardMonitor16setNumlockStatusERKb@Base 2.0.11
 _ZN3Dtk6Widget16DKeyboardMonitor16staticMetaObjectE@Base 2.0.11
 _ZN3Dtk6Widget16DKeyboardMonitor20numlockStatusChangedEb@Base 2.0.11
 _ZN3Dtk6Widget16DKeyboardMonitor21capslockStatusChangedEb@Base 2.0.11
 _ZN3Dtk6Widget16DKeyboardMonitor3runEv@Base 2.0.11
 _ZN3Dtk6Widget16DKeyboardMonitor6listenEP9_XDisplay@Base 2.0.11
 _ZN3Dtk6Widget16DKeyboardMonitor8instanceEv@Base 2.0.11
 _ZN3Dtk6Widget16DKeyboardMonitorC1Ev@Base 2.0.11
 _ZN3Dtk6Widget16DKeyboardMonitorC2Ev@Base 2.0.11
 _ZN3Dtk6Widget16DKeyboardMonitorD0Ev@Base 2.0.11
 _ZN3Dtk6Widget16DKeyboardMonitorD1Ev@Base 2.0.11
 _ZN3Dtk6Widget16DKeyboardMonitorD2Ev@Base 2.0.11
 _ZN3Dtk6Widget16DLineEditPrivate4initEv@Base 2.0.11
 _ZN3Dtk6Widget16DLineEditPrivateC1EPNS0_9DLineEditE@Base 2.0.11
 _ZN3Dtk6Widget16DLineEditPrivateC2EPNS0_9DLineEditE@Base 2.0.11
 _ZN3Dtk6Widget16DLineEditPrivateD0Ev@Base 2.0.11
 _ZN3Dtk6Widget16DLineEditPrivateD1Ev@Base 2.0.11
 _ZN3Dtk6Widget16DLineEditPrivateD2Ev@Base 2.0.11
 _ZN3Dtk6Widget16DListViewPrivate20onOrientationChangedEv@Base 2.0.11
 _ZN3Dtk6Widget16DListViewPrivate4initEv@Base 2.0.11
 _ZN3Dtk6Widget16DListViewPrivateC1EPNS0_9DListViewE@Base 2.0.11
 _ZN3Dtk6Widget16DListViewPrivateC2EPNS0_9DListViewE@Base 2.0.11
 _ZN3Dtk6Widget16DListViewPrivateD0Ev@Base 2.0.11
 _ZN3Dtk6Widget16DListViewPrivateD1Ev@Base 2.0.11
 _ZN3Dtk6Widget16DListViewPrivateD2Ev@Base 2.0.11
 _ZN3Dtk6Widget16DTabBarAddButton10paintEventEP11QPaintEvent@Base 2.0.11
 _ZN3Dtk6Widget16DTabBarAddButtonD0Ev@Base 2.0.11
 _ZN3Dtk6Widget16DTabBarAddButtonD1Ev@Base 2.0.11
 _ZN3Dtk6Widget16DTabBarAddButtonD2Ev@Base 2.0.11
 _ZN3Dtk6Widget16DTextEditPrivate4initEv@Base 2.0.11
 _ZN3Dtk6Widget16DTextEditPrivateC1EPNS0_9DTextEditE@Base 2.0.11
 _ZN3Dtk6Widget16DTextEditPrivateC2EPNS0_9DTextEditE@Base 2.0.11
 _ZN3Dtk6Widget16DTextEditPrivateD0Ev@Base 2.0.11
 _ZN3Dtk6Widget16DTextEditPrivateD1Ev@Base 2.0.11
 _ZN3Dtk6Widget16DTextEditPrivateD2Ev@Base 2.0.11
 _ZN3Dtk6Widget16DTitlebarPrivate12targetWindowEv@Base 2.0.11
 _ZN3Dtk6Widget16DTitlebarPrivate16_q_showMinimizedEv@Base 2.0.11
 _ZN3Dtk6Widget16DTitlebarPrivate16hideOnFullscreenEv@Base 2.0.11
 _ZN3Dtk6Widget16DTitlebarPrivate16showOnFullscreenEv@Base 2.0.11
 _ZN3Dtk6Widget16DTitlebarPrivate16updateFullscreenEv@Base 2.0.11
 _ZN3Dtk6Widget16DTitlebarPrivate17updateButtonsFuncEv@Base 2.0.11
 _ZN3Dtk6Widget16DTitlebarPrivate18updateButtonsStateE6QFlagsIN2Qt10WindowTypeEE@Base 2.0.11
 _ZN3Dtk6Widget16DTitlebarPrivate20_q_toggleWindowStateEv@Base 2.0.11
 _ZN3Dtk6Widget16DTitlebarPrivate21isVisableOnFullscreenEv@Base 2.0.11
 _ZN3Dtk6Widget16DTitlebarPrivate22_q_addDefaultMenuItemsEv@Base 2.0.11
 _ZN3Dtk6Widget16DTitlebarPrivate22_q_helpActionTriggeredEv@Base 2.0.11
 _ZN3Dtk6Widget16DTitlebarPrivate22_q_quitActionTriggeredEv@Base 2.0.11
 _ZN3Dtk6Widget16DTitlebarPrivate23_q_aboutActionTriggeredEv@Base 2.0.11
 _ZN3Dtk6Widget16DTitlebarPrivate26handleParentWindowIdChangeEv@Base 2.0.11
 _ZN3Dtk6Widget16DTitlebarPrivate29handleParentWindowStateChangeEv@Base 2.0.11
 _ZN3Dtk6Widget16DTitlebarPrivate31_q_onTopWindowMotifHintsChangedEj@Base 2.0.11
 _ZN3Dtk6Widget16DTitlebarPrivate4initEv@Base 2.0.11
 _ZN3Dtk6Widget16DTitlebarPrivateC1EPNS0_9DTitlebarE@Base 2.0.11
 _ZN3Dtk6Widget16DTitlebarPrivateC2EPNS0_9DTitlebarE@Base 2.0.11
 _ZN3Dtk6Widget16DTitlebarPrivateD0Ev@Base 2.0.11
 _ZN3Dtk6Widget16DTitlebarPrivateD1Ev@Base 2.0.11
 _ZN3Dtk6Widget16DTitlebarPrivateD2Ev@Base 2.0.11
 _ZN3Dtk6Widget16DWindowMaxButton11qt_metacallEN11QMetaObject4CallEiPPv@Base 2.0.11
 _ZN3Dtk6Widget16DWindowMaxButton11qt_metacastEPKc@Base 2.0.11
 _ZN3Dtk6Widget16DWindowMaxButton12setMaximizedEb@Base 2.0.11
 _ZN3Dtk6Widget16DWindowMaxButton16maximizedChangedEb@Base 2.0.11
 _ZN3Dtk6Widget16DWindowMaxButton16staticMetaObjectE@Base 2.0.11
 _ZN3Dtk6Widget16DWindowMaxButtonC1EP7QWidget@Base 2.0.11
 _ZN3Dtk6Widget16DWindowMaxButtonC2EP7QWidget@Base 2.0.11
 _ZN3Dtk6Widget16DWindowMaxButtonD0Ev@Base 2.0.11
 _ZN3Dtk6Widget16DWindowMaxButtonD1Ev@Base 2.0.11
 _ZN3Dtk6Widget16DWindowMaxButtonD2Ev@Base 2.0.11
 _ZN3Dtk6Widget16DWindowMinButton11qt_metacallEN11QMetaObject4CallEiPPv@Base 2.0.11
 _ZN3Dtk6Widget16DWindowMinButton11qt_metacastEPKc@Base 2.0.11
 _ZN3Dtk6Widget16DWindowMinButton16staticMetaObjectE@Base 2.0.11
 _ZN3Dtk6Widget16DWindowMinButtonC1EP7QWidget@Base 2.0.11
 _ZN3Dtk6Widget16DWindowMinButtonC2EP7QWidget@Base 2.0.11
 _ZN3Dtk6Widget16DWindowMinButtonD0Ev@Base 2.0.11
 _ZN3Dtk6Widget16DWindowMinButtonD1Ev@Base 2.0.11
 _ZN3Dtk6Widget16DWindowMinButtonD2Ev@Base 2.0.11
 _ZN3Dtk6Widget16VideoFormatProxy11qt_metacallEN11QMetaObject4CallEiPPv@Base 2.0.11
 _ZN3Dtk6Widget16VideoFormatProxy11qt_metacastEPKc@Base 2.0.11
 _ZN3Dtk6Widget16VideoFormatProxy16staticMetaObjectE@Base 2.0.11
 _ZN3Dtk6Widget16VideoFormatProxy19currentFrameChangedEv@Base 2.0.11
 _ZN3Dtk6Widget16VideoFormatProxy7presentERK11QVideoFrame@Base 2.0.11
 _ZN3Dtk6Widget16VideoFormatProxyC1EP7QObject@Base 2.0.11
 _ZN3Dtk6Widget16VideoFormatProxyC2EP7QObject@Base 2.0.11
 _ZN3Dtk6Widget16VideoFormatProxyD0Ev@Base 2.0.11
 _ZN3Dtk6Widget16VideoFormatProxyD1Ev@Base 2.0.11
 _ZN3Dtk6Widget16VideoFormatProxyD2Ev@Base 2.0.11
 _ZN3Dtk6Widget17DBlurEffectWidget10paintEventEP11QPaintEvent@Base 2.0.11
 _ZN3Dtk6Widget17DBlurEffectWidget11changeEventEP6QEvent@Base 2.0.11
 _ZN3Dtk6Widget17DBlurEffectWidget11modeChangedENS1_8BlurModeE@Base 2.0.11
 _ZN3Dtk6Widget17DBlurEffectWidget11qt_metacallEN11QMetaObject4CallEiPPv@Base 2.0.11
 _ZN3Dtk6Widget17DBlurEffectWidget11qt_metacastEPKc@Base 2.0.11
 _ZN3Dtk6Widget17DBlurEffectWidget11resizeEventEP12QResizeEvent@Base 2.0.11
 _ZN3Dtk6Widget17DBlurEffectWidget11setMaskPathERK12QPainterPath@Base 2.0.11
 _ZN3Dtk6Widget17DBlurEffectWidget12setBlendModeENS1_9BlendModeE@Base 2.0.11
 _ZN3Dtk6Widget17DBlurEffectWidget12setMaskAlphaEh@Base 2.0.11
 _ZN3Dtk6Widget17DBlurEffectWidget12setMaskColorE6QColor@Base 2.0.11
 _ZN3Dtk6Widget17DBlurEffectWidget12setMaskColorENS1_13MaskColorTypeE@Base 2.0.11
 _ZN3Dtk6Widget17DBlurEffectWidget13radiusChangedEi@Base 2.0.11
 _ZN3Dtk6Widget17DBlurEffectWidget16blendModeChangedENS1_9BlendModeE@Base 2.0.11
 _ZN3Dtk6Widget17DBlurEffectWidget16maskAlphaChangedEh@Base 2.0.11
 _ZN3Dtk6Widget17DBlurEffectWidget16maskColorChangedE6QColor@Base 2.0.11
 _ZN3Dtk6Widget17DBlurEffectWidget16staticMetaObjectE@Base 2.0.11
 _ZN3Dtk6Widget17DBlurEffectWidget18setBlurRectXRadiusEi@Base 2.0.11
 _ZN3Dtk6Widget17DBlurEffectWidget18setBlurRectYRadiusEi@Base 2.0.11
 _ZN3Dtk6Widget17DBlurEffectWidget22blurRectXRadiusChangedEi@Base 2.0.11
 _ZN3Dtk6Widget17DBlurEffectWidget22blurRectYRadiusChangedEi@Base 2.0.11
 _ZN3Dtk6Widget17DBlurEffectWidget7setModeENS1_8BlurModeE@Base 2.0.11
 _ZN3Dtk6Widget17DBlurEffectWidget9hideEventEP10QHideEvent@Base 2.0.11
 _ZN3Dtk6Widget17DBlurEffectWidget9moveEventEP10QMoveEvent@Base 2.0.11
 _ZN3Dtk6Widget17DBlurEffectWidget9setRadiusEi@Base 2.0.11
 _ZN3Dtk6Widget17DBlurEffectWidget9showEventEP10QShowEvent@Base 2.0.11
 _ZN3Dtk6Widget17DBlurEffectWidgetC1EP7QWidget@Base 2.0.11
 _ZN3Dtk6Widget17DBlurEffectWidgetC1ERNS0_24DBlurEffectWidgetPrivateEP7QWidget@Base 2.0.11
 _ZN3Dtk6Widget17DBlurEffectWidgetC2EP7QWidget@Base 2.0.11
 _ZN3Dtk6Widget17DBlurEffectWidgetC2ERNS0_24DBlurEffectWidgetPrivateEP7QWidget@Base 2.0.11
 _ZN3Dtk6Widget17DBlurEffectWidgetD0Ev@Base 2.0.11
 _ZN3Dtk6Widget17DBlurEffectWidgetD1Ev@Base 2.0.11
 _ZN3Dtk6Widget17DBlurEffectWidgetD2Ev@Base 2.0.11
 _ZN3Dtk6Widget17DBorderlessWidget10adjustSizeEv@Base 2.0.11
 _ZN3Dtk6Widget17DBorderlessWidget10closeEventEP11QCloseEvent@Base 2.0.11
 _ZN3Dtk6Widget17DBorderlessWidget10enterEventEP6QEvent@Base 2.0.11
 _ZN3Dtk6Widget17DBorderlessWidget10leaveEventEP6QEvent@Base 2.0.11
 _ZN3Dtk6Widget17DBorderlessWidget10moveWindowEN2Qt11MouseButtonE@Base 2.0.11
 _ZN3Dtk6Widget17DBorderlessWidget10paintEventEP11QPaintEvent@Base 2.0.11
 _ZN3Dtk6Widget17DBorderlessWidget10showNormalEv@Base 2.0.11
 _ZN3Dtk6Widget17DBorderlessWidget11changeEventEP6QEvent@Base 2.0.11
 _ZN3Dtk6Widget17DBorderlessWidget11qt_metacallEN11QMetaObject4CallEiPPv@Base 2.0.11
 _ZN3Dtk6Widget17DBorderlessWidget11qt_metacastEPKc@Base 2.0.11
 _ZN3Dtk6Widget17DBorderlessWidget11resizeEventEP12QResizeEvent@Base 2.0.11
 _ZN3Dtk6Widget17DBorderlessWidget11windowFlagsEv@Base 2.0.11
 _ZN3Dtk6Widget17DBorderlessWidget12removeLayoutEv@Base 2.0.11
 _ZN3Dtk6Widget17DBorderlessWidget12setFixedSizeERK5QSize@Base 2.0.11
 _ZN3Dtk6Widget17DBorderlessWidget12setFixedSizeEii@Base 2.0.11
 _ZN3Dtk6Widget17DBorderlessWidget12setTitleIconERK7QPixmap@Base 2.0.11
 _ZN3Dtk6Widget17DBorderlessWidget13optionClickedEv@Base 2.0.11
 _ZN3Dtk6Widget17DBorderlessWidget13setFixedWidthEi@Base 2.0.11
 _ZN3Dtk6Widget17DBorderlessWidget13showMaximizedEv@Base 2.0.11
 _ZN3Dtk6Widget17DBorderlessWidget13showMinimizedEv@Base 2.0.11
 _ZN3Dtk6Widget17DBorderlessWidget14mouseMoveEventEP11QMouseEvent@Base 2.0.11
 _ZN3Dtk6Widget17DBorderlessWidget14setShadowColorE6QColor@Base 2.0.11
 _ZN3Dtk6Widget17DBorderlessWidget14setShadowWidthEi@Base 2.0.11
 _ZN3Dtk6Widget17DBorderlessWidget14setWindowFlagsE6QFlagsIN2Qt10WindowTypeEE@Base 2.0.11
 _ZN3Dtk6Widget17DBorderlessWidget14showFullScreenEv@Base 2.0.11
 _ZN3Dtk6Widget17DBorderlessWidget15decorationFlagsEv@Base 2.0.11
 _ZN3Dtk6Widget17DBorderlessWidget15mousePressEventEP11QMouseEvent@Base 2.0.11
 _ZN3Dtk6Widget17DBorderlessWidget15setShadowOffsetE6QPoint@Base 2.0.11
 _ZN3Dtk6Widget17DBorderlessWidget15setTitlebarMenuEP5QMenu@Base 2.0.11
 _ZN3Dtk6Widget17DBorderlessWidget16drawShadowPixmapEv@Base 2.0.11
 _ZN3Dtk6Widget17DBorderlessWidget16staticMetaObjectE@Base 2.0.11
 _ZN3Dtk6Widget17DBorderlessWidget17mouseReleaseEventEP11QMouseEvent@Base 2.0.11
 _ZN3Dtk6Widget17DBorderlessWidget17setTitlebarWidgetEP7QWidgetN2Qt13AlignmentFlagEb@Base 2.0.11
 _ZN3Dtk6Widget17DBorderlessWidget17setTitlebarWidgetEP7QWidgetb@Base 2.0.11
 _ZN3Dtk6Widget17DBorderlessWidget18setBackgroundColorE6QColor@Base 2.0.11
 _ZN3Dtk6Widget17DBorderlessWidget18setBackgroundImageERK7QPixmap@Base 2.0.11
 _ZN3Dtk6Widget17DBorderlessWidget18setContentsMarginsERK8QMargins@Base 2.0.11
 _ZN3Dtk6Widget17DBorderlessWidget18setContentsMarginsEiiii@Base 2.0.11
 _ZN3Dtk6Widget17DBorderlessWidget18setDecorationFlagsE6QFlagsINS1_14DecorationFlagEE@Base 2.0.11
 _ZN3Dtk6Widget17DBorderlessWidget18shadowColorChangedE6QColor@Base 2.0.11
 _ZN3Dtk6Widget17DBorderlessWidget19shadowOffsetChangedE6QPoint@Base 2.0.11
 _ZN3Dtk6Widget17DBorderlessWidget21toggleMaximizedWindowEv@Base 2.0.11
 _ZN3Dtk6Widget17DBorderlessWidget22backgroundColorChangedE6QColor@Base 2.0.11
 _ZN3Dtk6Widget17DBorderlessWidget22setTitlebarFixedHeightEi@Base 2.0.11
 _ZN3Dtk6Widget17DBorderlessWidget4moveERK6QPoint@Base 2.0.11
 _ZN3Dtk6Widget17DBorderlessWidget4moveEii@Base 2.0.11
 _ZN3Dtk6Widget17DBorderlessWidget6resizeERK5QSize@Base 2.0.11
 _ZN3Dtk6Widget17DBorderlessWidget6resizeEii@Base 2.0.11
 _ZN3Dtk6Widget17DBorderlessWidget8setTitleERK7QString@Base 2.0.11
 _ZN3Dtk6Widget17DBorderlessWidget9setBorderEi@Base 2.0.11
 _ZN3Dtk6Widget17DBorderlessWidget9setLayoutEP7QLayout@Base 2.0.11
 _ZN3Dtk6Widget17DBorderlessWidget9setRadiusEi@Base 2.0.11
 _ZN3Dtk6Widget17DBorderlessWidget9showEventEP10QShowEvent@Base 2.0.11
 _ZN3Dtk6Widget17DBorderlessWidgetC1EP7QWidget@Base 2.0.11
 _ZN3Dtk6Widget17DBorderlessWidgetC1ERNS0_24DBorderlessWidgetPrivateEP7QWidget@Base 2.0.11
 _ZN3Dtk6Widget17DBorderlessWidgetC2EP7QWidget@Base 2.0.11
 _ZN3Dtk6Widget17DBorderlessWidgetC2ERNS0_24DBorderlessWidgetPrivateEP7QWidget@Base 2.0.11
 _ZN3Dtk6Widget17DBorderlessWidgetD0Ev@Base 2.0.11
 _ZN3Dtk6Widget17DBorderlessWidgetD1Ev@Base 2.0.11
 _ZN3Dtk6Widget17DBorderlessWidgetD2Ev@Base 2.0.11
 _ZN3Dtk6Widget17DBorderlessWindow11qt_metacallEN11QMetaObject4CallEiPPv@Base 2.0.11
 _ZN3Dtk6Widget17DBorderlessWindow11qt_metacastEPKc@Base 2.0.11
 _ZN3Dtk6Widget17DBorderlessWindow16setContentLayoutEP7QLayout@Base 2.0.11
 _ZN3Dtk6Widget17DBorderlessWindow16setContentWidgetEP7QWidget@Base 2.0.11
 _ZN3Dtk6Widget17DBorderlessWindow16staticMetaObjectE@Base 2.0.11
 _ZN3Dtk6Widget17DBorderlessWindow9setParentEP7QWidget@Base 2.0.11
 _ZN3Dtk6Widget17DBorderlessWindowC1EP7QWidget@Base 2.0.11
 _ZN3Dtk6Widget17DBorderlessWindowC2EP7QWidget@Base 2.0.11
 _ZN3Dtk6Widget17DBorderlessWindowD0Ev@Base 2.0.11
 _ZN3Dtk6Widget17DBorderlessWindowD1Ev@Base 2.0.11
 _ZN3Dtk6Widget17DBorderlessWindowD2Ev@Base 2.0.11
 _ZN3Dtk6Widget17DBoxWidgetPrivate4initEv@Base 2.0.11
 _ZN3Dtk6Widget17DBoxWidgetPrivateC1EPNS0_10DBoxWidgetE@Base 2.0.11
 _ZN3Dtk6Widget17DBoxWidgetPrivateC2EPNS0_10DBoxWidgetE@Base 2.0.11
 _ZN3Dtk6Widget17DBoxWidgetPrivateD0Ev@Base 2.0.11
 _ZN3Dtk6Widget17DBoxWidgetPrivateD1Ev@Base 2.0.11
 _ZN3Dtk6Widget17DBoxWidgetPrivateD2Ev@Base 2.0.11
 _ZN3Dtk6Widget17DClipEffectWidget10paintEventEP11QPaintEvent@Base 2.0.11
 _ZN3Dtk6Widget17DClipEffectWidget10setMarginsE8QMargins@Base 2.0.11
 _ZN3Dtk6Widget17DClipEffectWidget11eventFilterEP7QObjectP6QEvent@Base 2.0.11
 _ZN3Dtk6Widget17DClipEffectWidget11qt_metacallEN11QMetaObject4CallEiPPv@Base 2.0.11
 _ZN3Dtk6Widget17DClipEffectWidget11qt_metacastEPKc@Base 2.0.11
 _ZN3Dtk6Widget17DClipEffectWidget11resizeEventEP12QResizeEvent@Base 2.0.11
 _ZN3Dtk6Widget17DClipEffectWidget11setClipPathERK12QPainterPath@Base 2.0.11
 _ZN3Dtk6Widget17DClipEffectWidget14marginsChangedE8QMargins@Base 2.0.11
 _ZN3Dtk6Widget17DClipEffectWidget15clipPathChangedE12QPainterPath@Base 2.0.11
 _ZN3Dtk6Widget17DClipEffectWidget16staticMetaObjectE@Base 2.0.11
 _ZN3Dtk6Widget17DClipEffectWidget9hideEventEP10QHideEvent@Base 2.0.11
 _ZN3Dtk6Widget17DClipEffectWidget9showEventEP10QShowEvent@Base 2.0.11
 _ZN3Dtk6Widget17DClipEffectWidgetC1EP7QWidget@Base 2.0.11
 _ZN3Dtk6Widget17DClipEffectWidgetC2EP7QWidget@Base 2.0.11
 _ZN3Dtk6Widget17DClipEffectWidgetD0Ev@Base 2.0.11
 _ZN3Dtk6Widget17DClipEffectWidgetD1Ev@Base 2.0.11
 _ZN3Dtk6Widget17DClipEffectWidgetD2Ev@Base 2.0.11
 _ZN3Dtk6Widget17DCrumbEditPrivate16_q_onTextChangedEv@Base 2.0.11
 _ZN3Dtk6Widget17DCrumbEditPrivate9makeCrumbEv@Base 2.0.11
 _ZN3Dtk6Widget17DCrumbEditPrivateD0Ev@Base 2.0.11
 _ZN3Dtk6Widget17DCrumbEditPrivateD1Ev@Base 2.0.11
 _ZN3Dtk6Widget17DCrumbEditPrivateD2Ev@Base 2.0.11
 _ZN3Dtk6Widget17DFileIconProvider14globalProviderEv@Base 2.0.11
 _ZN3Dtk6Widget17DFileIconProviderC1Ev@Base 2.0.11
 _ZN3Dtk6Widget17DFileIconProviderC2Ev@Base 2.0.11
 _ZN3Dtk6Widget17DFileIconProviderD0Ev@Base 2.0.11
 _ZN3Dtk6Widget17DFileIconProviderD1Ev@Base 2.0.11
 _ZN3Dtk6Widget17DFileIconProviderD2Ev@Base 2.0.11
 _ZN3Dtk6Widget17DLoadingIndicator10setLoadingEb@Base 2.0.11
 _ZN3Dtk6Widget17DLoadingIndicator11qt_metacallEN11QMetaObject4CallEiPPv@Base 2.0.11
 _ZN3Dtk6Widget17DLoadingIndicator11qt_metacastEPKc@Base 2.0.11
 _ZN3Dtk6Widget17DLoadingIndicator11resizeEventEP12QResizeEvent@Base 2.0.11
 _ZN3Dtk6Widget17DLoadingIndicator12setDirectionENS1_17RotationDirectionE@Base 2.0.11
 _ZN3Dtk6Widget17DLoadingIndicator13rotateChangedEd@Base 2.0.11
 _ZN3Dtk6Widget17DLoadingIndicator14setAniDurationEi@Base 2.0.11
 _ZN3Dtk6Widget17DLoadingIndicator14setImageSourceERK7QPixmap@Base 2.0.11
 _ZN3Dtk6Widget17DLoadingIndicator15setWidgetSourceEP7QWidget@Base 2.0.11
 _ZN3Dtk6Widget17DLoadingIndicator16directionChangedENS1_17RotationDirectionE@Base 2.0.11
 _ZN3Dtk6Widget17DLoadingIndicator16setAniEasingTypeEN12QEasingCurve4TypeE@Base 2.0.11
 _ZN3Dtk6Widget17DLoadingIndicator16staticMetaObjectE@Base 2.0.11
 _ZN3Dtk6Widget17DLoadingIndicator17setAniEasingCurveERK12QEasingCurve@Base 2.0.11
 _ZN3Dtk6Widget17DLoadingIndicator18setBackgroundColorERK6QColor@Base 2.0.11
 _ZN3Dtk6Widget17DLoadingIndicator4stopEv@Base 2.0.11
 _ZN3Dtk6Widget17DLoadingIndicator5startEv@Base 2.0.11
 _ZN3Dtk6Widget17DLoadingIndicator9setRotateE8QVariant@Base 2.0.11
 _ZN3Dtk6Widget17DLoadingIndicator9setSmoothEb@Base 2.0.11
 _ZN3Dtk6Widget17DLoadingIndicatorC1EP7QWidget@Base 2.0.11
 _ZN3Dtk6Widget17DLoadingIndicatorC2EP7QWidget@Base 2.0.11
 _ZN3Dtk6Widget17DLoadingIndicatorD0Ev@Base 2.0.11
 _ZN3Dtk6Widget17DLoadingIndicatorD1Ev@Base 2.0.11
 _ZN3Dtk6Widget17DLoadingIndicatorD2Ev@Base 2.0.11
 _ZN3Dtk6Widget17DMovableTabWidget10paintEventEP11QPaintEvent@Base 2.0.11
 _ZN3Dtk6Widget17DMovableTabWidget9setPixmapERK7QPixmap@Base 2.0.11
 _ZN3Dtk6Widget17DMovableTabWidgetC1EP7QWidget@Base 2.0.11
 _ZN3Dtk6Widget17DMovableTabWidgetC2EP7QWidget@Base 2.0.11
 _ZN3Dtk6Widget17DMovableTabWidgetD0Ev@Base 2.0.11
 _ZN3Dtk6Widget17DMovableTabWidgetD1Ev@Base 2.0.11
 _ZN3Dtk6Widget17DMovableTabWidgetD2Ev@Base 2.0.11
 _ZN3Dtk6Widget17DScrollBarPrivate10setOpacityEd@Base 2.0.11
 _ZN3Dtk6Widget17DScrollBarPrivate16_q_updateOpacityEv@Base 2.0.11
 _ZN3Dtk6Widget17DScrollBarPrivate4initEv@Base 2.0.11
 _ZN3Dtk6Widget17DScrollBarPrivate9_q_hiddenEv@Base 2.0.11
 _ZN3Dtk6Widget17DScrollBarPrivateC1EPNS0_10DScrollBarE@Base 2.0.11
 _ZN3Dtk6Widget17DScrollBarPrivateC2EPNS0_10DScrollBarE@Base 2.0.11
 _ZN3Dtk6Widget17DScrollBarPrivateD0Ev@Base 2.0.11
 _ZN3Dtk6Widget17DScrollBarPrivateD1Ev@Base 2.0.11
 _ZN3Dtk6Widget17DScrollBarPrivateD2Ev@Base 2.0.11
 _ZN3Dtk6Widget17DSegmentedControl11eventFilterEP7QObjectP6QEvent@Base 2.0.11
 _ZN3Dtk6Widget17DSegmentedControl11qt_metacallEN11QMetaObject4CallEiPPv@Base 2.0.11
 _ZN3Dtk6Widget17DSegmentedControl11qt_metacastEPKc@Base 2.0.11
 _ZN3Dtk6Widget17DSegmentedControl11resizeEventEP12QResizeEvent@Base 2.0.11
 _ZN3Dtk6Widget17DSegmentedControl12addSegmentedERK11QStringList@Base 2.0.11
 _ZN3Dtk6Widget17DSegmentedControl12addSegmentedERK5QIconRK7QString@Base 2.0.11
 _ZN3Dtk6Widget17DSegmentedControl12addSegmentedERK5QListI5QIconERK11QStringList@Base 2.0.11
 _ZN3Dtk6Widget17DSegmentedControl12addSegmentedERK7QString@Base 2.0.11
 _ZN3Dtk6Widget17DSegmentedControl13buttonClickedEv@Base 2.0.11
 _ZN3Dtk6Widget17DSegmentedControl14currentChangedEi@Base 2.0.11
 _ZN3Dtk6Widget17DSegmentedControl15insertSegmentedEiRK5QIconRK7QString@Base 2.0.11
 _ZN3Dtk6Widget17DSegmentedControl15insertSegmentedEiRK7QString@Base 2.0.11
 _ZN3Dtk6Widget17DSegmentedControl15removeSegmentedEi@Base 2.0.11
 _ZN3Dtk6Widget17DSegmentedControl15setCurrentIndexEi@Base 2.0.11
 _ZN3Dtk6Widget17DSegmentedControl16setAnimationTypeEN12QEasingCurve4TypeE@Base 2.0.11
 _ZN3Dtk6Widget17DSegmentedControl16staticMetaObjectE@Base 2.0.11
 _ZN3Dtk6Widget17DSegmentedControl19currentTitleChangedE7QString@Base 2.0.11
 _ZN3Dtk6Widget17DSegmentedControl20setAnimationDurationEi@Base 2.0.11
 _ZN3Dtk6Widget17DSegmentedControl22setCurrentIndexByTitleERK7QString@Base 2.0.11
 _ZN3Dtk6Widget17DSegmentedControl23updateHighlightGeometryEb@Base 2.0.11
 _ZN3Dtk6Widget17DSegmentedControl24animationDurationChangedEi@Base 2.0.11
 _ZN3Dtk6Widget17DSegmentedControl5clearEv@Base 2.0.11
 _ZN3Dtk6Widget17DSegmentedControl7setIconEiRK5QIcon@Base 2.0.11
 _ZN3Dtk6Widget17DSegmentedControl7setTextEiRK7QString@Base 2.0.11
 _ZN3Dtk6Widget17DSegmentedControlC1EP7QWidget@Base 2.0.11
 _ZN3Dtk6Widget17DSegmentedControlC2EP7QWidget@Base 2.0.11
 _ZN3Dtk6Widget17DSegmentedControlD0Ev@Base 2.0.11
 _ZN3Dtk6Widget17DSegmentedControlD1Ev@Base 2.0.11
 _ZN3Dtk6Widget17DSegmentedControlD2Ev@Base 2.0.11
 _ZN3Dtk6Widget17DSwitchHeaderLine11qt_metacallEN11QMetaObject4CallEiPPv@Base 2.0.11
 _ZN3Dtk6Widget17DSwitchHeaderLine11qt_metacastEPKc@Base 2.0.11
 _ZN3Dtk6Widget17DSwitchHeaderLine14checkedChangedEb@Base 2.0.11
 _ZN3Dtk6Widget17DSwitchHeaderLine15mousePressEventEP11QMouseEvent@Base 2.0.11
 _ZN3Dtk6Widget17DSwitchHeaderLine16staticMetaObjectE@Base 2.0.11
 _ZN3Dtk6Widget17DSwitchHeaderLine9setExpandEb@Base 2.0.11
 _ZN3Dtk6Widget17DSwitchHeaderLineC1EP7QWidget@Base 2.0.11
 _ZN3Dtk6Widget17DSwitchHeaderLineC2EP7QWidget@Base 2.0.11
 _ZN3Dtk6Widget17DSwitchHeaderLineD0Ev@Base 2.0.11
 _ZN3Dtk6Widget17DSwitchHeaderLineD1Ev@Base 2.0.11
 _ZN3Dtk6Widget17DSwitchHeaderLineD2Ev@Base 2.0.11
 _ZN3Dtk6Widget17DSwitchLineExpand11qt_metacallEN11QMetaObject4CallEiPPv@Base 2.0.11
 _ZN3Dtk6Widget17DSwitchLineExpand11qt_metacastEPKc@Base 2.0.11
 _ZN3Dtk6Widget17DSwitchLineExpand11resizeEventEP12QResizeEvent@Base 2.0.11
 _ZN3Dtk6Widget17DSwitchLineExpand16staticMetaObjectE@Base 2.0.11
 _ZN3Dtk6Widget17DSwitchLineExpand6headerEv@Base 2.0.11
 _ZN3Dtk6Widget17DSwitchLineExpand8setTitleERK7QString@Base 2.0.11
 _ZN3Dtk6Widget17DSwitchLineExpand9setExpandEb@Base 2.0.11
 _ZN3Dtk6Widget17DSwitchLineExpand9setHeaderEP7QWidget@Base 2.0.11
 _ZN3Dtk6Widget17DSwitchLineExpandC1EP7QWidget@Base 2.0.11
 _ZN3Dtk6Widget17DSwitchLineExpandC2EP7QWidget@Base 2.0.11
 _ZN3Dtk6Widget17DSwitchLineExpandD0Ev@Base 2.0.11
 _ZN3Dtk6Widget17DSwitchLineExpandD1Ev@Base 2.0.11
 _ZN3Dtk6Widget17DSwitchLineExpandD2Ev@Base 2.0.11
 _ZN3Dtk6Widget17DVariantListModel10insertRowsEiiRK11QModelIndex@Base 2.0.11
 _ZN3Dtk6Widget17DVariantListModel10removeRowsEiiRK11QModelIndex@Base 2.0.11
 _ZN3Dtk6Widget17DVariantListModel7setDataERK11QModelIndexRK8QVarianti@Base 2.0.11
 _ZN3Dtk6Widget17DVariantListModelC1EP7QObject@Base 2.0.11
 _ZN3Dtk6Widget17DVariantListModelC2EP7QObject@Base 2.0.11
 _ZN3Dtk6Widget17DVariantListModelD0Ev@Base 2.0.11
 _ZN3Dtk6Widget17DVariantListModelD1Ev@Base 2.0.11
 _ZN3Dtk6Widget17DVariantListModelD2Ev@Base 2.0.11
 _ZN3Dtk6Widget18DFlowLayoutPrivateC1EPNS0_11DFlowLayoutE@Base 2.0.11
 _ZN3Dtk6Widget18DFlowLayoutPrivateC2EPNS0_11DFlowLayoutE@Base 2.0.11
 _ZN3Dtk6Widget18DFlowLayoutPrivateD0Ev@Base 2.0.11
 _ZN3Dtk6Widget18DFlowLayoutPrivateD1Ev@Base 2.0.11
 _ZN3Dtk6Widget18DFlowLayoutPrivateD2Ev@Base 2.0.11
 _ZN3Dtk6Widget18DListWidgetPrivate4initEv@Base 2.0.11
 _ZN3Dtk6Widget18DListWidgetPrivateC1EPNS0_11DListWidgetE@Base 2.0.11
 _ZN3Dtk6Widget18DListWidgetPrivateC2EPNS0_11DListWidgetE@Base 2.0.11
 _ZN3Dtk6Widget18DListWidgetPrivateD0Ev@Base 2.0.11
 _ZN3Dtk6Widget18DListWidgetPrivateD1Ev@Base 2.0.11
 _ZN3Dtk6Widget18DListWidgetPrivateD2Ev@Base 2.0.11
 _ZN3Dtk6Widget18DMainWindowPrivate4initEv@Base 2.0.11
 _ZN3Dtk6Widget18DMainWindowPrivateC1EPNS0_11DMainWindowE@Base 2.0.11
 _ZN3Dtk6Widget18DMainWindowPrivateC2EPNS0_11DMainWindowE@Base 2.0.11
 _ZN3Dtk6Widget18DMainWindowPrivateD0Ev@Base 2.0.11
 _ZN3Dtk6Widget18DMainWindowPrivateD1Ev@Base 2.0.11
 _ZN3Dtk6Widget18DMainWindowPrivateD2Ev@Base 2.0.11
 _ZN3Dtk6Widget18DOptionListPrivate12insertOptionEiPNS0_7DOptionE@Base 2.0.11
 _ZN3Dtk6Widget18DOptionListPrivate18setCurrentSelectedERK7QString@Base 2.0.11
 _ZN3Dtk6Widget18DOptionListPrivate18setCurrentSelectedEi@Base 2.0.11
 _ZN3Dtk6Widget18DOptionListPrivate21_q_currentItemChangedEP15QListWidgetItemS3_@Base 2.0.11
 _ZN3Dtk6Widget18DOptionListPrivate4initEv@Base 2.0.11
 _ZN3Dtk6Widget18DOptionListPrivate9addOptionEPNS0_7DOptionE@Base 2.0.11
 _ZN3Dtk6Widget18DOptionListPrivateC1EPNS0_11DOptionListE@Base 2.0.11
 _ZN3Dtk6Widget18DOptionListPrivateC2EPNS0_11DOptionListE@Base 2.0.11
 _ZN3Dtk6Widget18DOptionListPrivateD0Ev@Base 2.0.11
 _ZN3Dtk6Widget18DOptionListPrivateD1Ev@Base 2.0.11
 _ZN3Dtk6Widget18DOptionListPrivateD2Ev@Base 2.0.11
 _ZN3Dtk6Widget18DPushButtonPrivateC1EPNS0_11DPushButtonE@Base 2.0.11
 _ZN3Dtk6Widget18DPushButtonPrivateC2EPNS0_11DPushButtonE@Base 2.0.11
 _ZN3Dtk6Widget18DPushButtonPrivateD0Ev@Base 2.0.11
 _ZN3Dtk6Widget18DPushButtonPrivateD1Ev@Base 2.0.11
 _ZN3Dtk6Widget18DPushButtonPrivateD2Ev@Base 2.0.11
 _ZN3Dtk6Widget18DScrollAreaPrivate4initEv@Base 2.0.11
 _ZN3Dtk6Widget18DScrollAreaPrivateC1EPNS0_11DScrollAreaE@Base 2.0.11
 _ZN3Dtk6Widget18DScrollAreaPrivateC2EPNS0_11DScrollAreaE@Base 2.0.11
 _ZN3Dtk6Widget18DScrollAreaPrivateD0Ev@Base 2.0.11
 _ZN3Dtk6Widget18DScrollAreaPrivateD1Ev@Base 2.0.11
 _ZN3Dtk6Widget18DScrollAreaPrivateD2Ev@Base 2.0.11
 _ZN3Dtk6Widget18DSeparatorVertical11qt_metacallEN11QMetaObject4CallEiPPv@Base 2.0.11
 _ZN3Dtk6Widget18DSeparatorVertical11qt_metacastEPKc@Base 2.0.11
 _ZN3Dtk6Widget18DSeparatorVertical16staticMetaObjectE@Base 2.0.11
 _ZN3Dtk6Widget18DSeparatorVerticalC1EP7QWidget@Base 2.0.11
 _ZN3Dtk6Widget18DSeparatorVerticalC2EP7QWidget@Base 2.0.11
 _ZN3Dtk6Widget18DSeparatorVerticalD0Ev@Base 2.0.11
 _ZN3Dtk6Widget18DSeparatorVerticalD1Ev@Base 2.0.11
 _ZN3Dtk6Widget18DSeparatorVerticalD2Ev@Base 2.0.11
 _ZN3Dtk6Widget18DShortcutEditLabel10enterEventEP6QEvent@Base 2.0.11
 _ZN3Dtk6Widget18DShortcutEditLabel10leaveEventEP6QEvent@Base 2.0.11
 _ZN3Dtk6Widget18DShortcutEditLabel11qt_metacallEN11QMetaObject4CallEiPPv@Base 2.0.11
 _ZN3Dtk6Widget18DShortcutEditLabel11qt_metacastEPKc@Base 2.0.11
 _ZN3Dtk6Widget18DShortcutEditLabel12setEchoStateENS1_9EchoStateE@Base 2.0.11
 _ZN3Dtk6Widget18DShortcutEditLabel16staticMetaObjectE@Base 2.0.11
 _ZN3Dtk6Widget18DShortcutEditLabel18colorSettingChangeEv@Base 2.0.11
 _ZN3Dtk6Widget18DShortcutEditLabelC1EP7QWidget@Base 2.0.11
 _ZN3Dtk6Widget18DShortcutEditLabelC2EP7QWidget@Base 2.0.11
 _ZN3Dtk6Widget18DShortcutEditLabelD0Ev@Base 2.0.11
 _ZN3Dtk6Widget18DShortcutEditLabelD1Ev@Base 2.0.11
 _ZN3Dtk6Widget18DShortcutEditLabelD2Ev@Base 2.0.11
 _ZN3Dtk6Widget18DSpinBox_getButtonERK7QString@Base 2.0.11
 _ZN3Dtk6Widget18DThumbnailProvider11qt_metacallEN11QMetaObject4CallEiPPv@Base 2.0.11
 _ZN3Dtk6Widget18DThumbnailProvider11qt_metacastEPKc@Base 2.0.11
 _ZN3Dtk6Widget18DThumbnailProvider12setSizeLimitERK9QMimeTypex@Base 2.0.11
 _ZN3Dtk6Widget18DThumbnailProvider15createThumbnailERK9QFileInfoNS1_4SizeE@Base 2.0.11
 _ZN3Dtk6Widget18DThumbnailProvider16staticMetaObjectE@Base 2.0.11
 _ZN3Dtk6Widget18DThumbnailProvider19setDefaultSizeLimitEx@Base 2.0.11
 _ZN3Dtk6Widget18DThumbnailProvider20appendToProduceQueueERK9QFileInfoNS1_4SizeESt8functionIFvRK7QStringEE@Base 2.0.11
 _ZN3Dtk6Widget18DThumbnailProvider20removeInProduceQueueERK9QFileInfoNS1_4SizeE@Base 2.0.11
 _ZN3Dtk6Widget18DThumbnailProvider3runEv@Base 2.0.11
 _ZN3Dtk6Widget18DThumbnailProvider8instanceEv@Base 2.0.11
 _ZN3Dtk6Widget18DThumbnailProviderC1EP7QObject@Base 2.0.11
 _ZN3Dtk6Widget18DThumbnailProviderC2EP7QObject@Base 2.0.11
 _ZN3Dtk6Widget18DThumbnailProviderD0Ev@Base 2.0.11
 _ZN3Dtk6Widget18DThumbnailProviderD1Ev@Base 2.0.11
 _ZN3Dtk6Widget18DThumbnailProviderD2Ev@Base 2.0.11
 _ZN3Dtk6Widget18DTickEffectPrivate13initDirectionEv@Base 2.0.11
 _ZN3Dtk6Widget18DTickEffectPrivate4initEv@Base 2.0.11
 _ZN3Dtk6Widget18DTickEffectPrivateC1EPNS0_11DTickEffectE@Base 2.0.11
 _ZN3Dtk6Widget18DTickEffectPrivateC2EPNS0_11DTickEffectE@Base 2.0.11
 _ZN3Dtk6Widget18DTickEffectPrivateD0Ev@Base 2.0.11
 _ZN3Dtk6Widget18DTickEffectPrivateD1Ev@Base 2.0.11
 _ZN3Dtk6Widget18DTickEffectPrivateD2Ev@Base 2.0.11
 _ZN3Dtk6Widget18DWindowCloseButton11qt_metacallEN11QMetaObject4CallEiPPv@Base 2.0.11
 _ZN3Dtk6Widget18DWindowCloseButton11qt_metacastEPKc@Base 2.0.11
 _ZN3Dtk6Widget18DWindowCloseButton16staticMetaObjectE@Base 2.0.11
 _ZN3Dtk6Widget18DWindowCloseButtonC1EP7QWidget@Base 2.0.11
 _ZN3Dtk6Widget18DWindowCloseButtonC2EP7QWidget@Base 2.0.11
 _ZN3Dtk6Widget18DWindowCloseButtonD0Ev@Base 2.0.11
 _ZN3Dtk6Widget18DWindowCloseButtonD1Ev@Base 2.0.11
 _ZN3Dtk6Widget18DWindowCloseButtonD2Ev@Base 2.0.11
 _ZN3Dtk6Widget18DWindowGroupLeader12removeWindowEP7QWidget@Base 2.0.11
 _ZN3Dtk6Widget18DWindowGroupLeader12removeWindowEP7QWindow@Base 2.0.11
 _ZN3Dtk6Widget18DWindowGroupLeader9addWindowEP7QWidget@Base 2.0.11
 _ZN3Dtk6Widget18DWindowGroupLeader9addWindowEP7QWindow@Base 2.0.11
 _ZN3Dtk6Widget18DWindowGroupLeaderC1Ej@Base 2.0.11
 _ZN3Dtk6Widget18DWindowGroupLeaderC2Ej@Base 2.0.11
 _ZN3Dtk6Widget18DWindowGroupLeaderD1Ev@Base 2.0.11
 _ZN3Dtk6Widget18DWindowGroupLeaderD2Ev@Base 2.0.11
 _ZN3Dtk6Widget19DAboutDialogPrivate10loadPixmapERK7QString@Base 2.0.11
 _ZN3Dtk6Widget19DAboutDialogPrivate15initWebsiteInfoEv@Base 2.0.11
 _ZN3Dtk6Widget19DAboutDialogPrivate18_q_onLinkActivatedERK7QString@Base 2.0.11
 _ZN3Dtk6Widget19DAboutDialogPrivate18updateWebsiteLabelEv@Base 2.0.11
 _ZN3Dtk6Widget19DAboutDialogPrivate19websiteLinkTemplateE@Base 2.0.11
 _ZN3Dtk6Widget19DAboutDialogPrivate26updateAcknowledgementLabelEv@Base 2.0.11
 _ZN3Dtk6Widget19DAboutDialogPrivate4initEv@Base 2.0.11
 _ZN3Dtk6Widget19DAboutDialogPrivateC1EPNS0_12DAboutDialogE@Base 2.0.11
 _ZN3Dtk6Widget19DAboutDialogPrivateC2EPNS0_12DAboutDialogE@Base 2.0.11
 _ZN3Dtk6Widget19DAboutDialogPrivateD0Ev@Base 2.0.11
 _ZN3Dtk6Widget19DAboutDialogPrivateD1Ev@Base 2.0.11
 _ZN3Dtk6Widget19DAboutDialogPrivateD2Ev@Base 2.0.11
 _ZN3Dtk6Widget19DAnchorsBasePrivate14getValueByInfoEPKNS0_11DAnchorInfoE@Base 2.0.11
 _ZN3Dtk6Widget19DAnchorsBasePrivate14setValueByInfoEdPKNS0_11DAnchorInfoE@Base 2.0.11
 _ZN3Dtk6Widget19DAnchorsBasePrivate20getTargetValueByInfoEPKNS0_11DAnchorInfoE@Base 2.0.11
 _ZN3Dtk6Widget19DAnchorsBasePrivate9widgetMapE@Base 2.0.11
 _ZN3Dtk6Widget19DApplicationPrivate14loadTranslatorE5QListINS_4Core8DPathBufEERK7QStringS2_I7QLocaleE@Base 2.0.11
 _ZN3Dtk6Widget19DApplicationPrivate17loadDtkTranslatorE5QListI7QLocaleE@Base 2.0.11
 _ZN3Dtk6Widget19DApplicationPrivate18isUserManualExistsEv@Base 2.0.11
 _ZN3Dtk6Widget19DApplicationPrivate23setSingleInstanceByDbusERK7QString@Base 2.0.11
 _ZN3Dtk6Widget19DApplicationPrivate28setSingleInstanceBySemaphoreERK7QString@Base 2.0.11
 _ZN3Dtk6Widget19DApplicationPrivate8setThemeERK7QString@Base 2.0.11
 _ZN3Dtk6Widget19DApplicationPrivateC1EPNS0_12DApplicationE@Base 2.0.11
 _ZN3Dtk6Widget19DApplicationPrivateC2EPNS0_12DApplicationE@Base 2.0.11
 _ZN3Dtk6Widget19DApplicationPrivateD0Ev@Base 2.0.11
 _ZN3Dtk6Widget19DApplicationPrivateD1Ev@Base 2.0.11
 _ZN3Dtk6Widget19DApplicationPrivateD2Ev@Base 2.0.11
 _ZN3Dtk6Widget19DGraphicsClipEffect10setMarginsERK8QMargins@Base 2.0.11
 _ZN3Dtk6Widget19DGraphicsClipEffect11qt_metacallEN11QMetaObject4CallEiPPv@Base 2.0.11
 _ZN3Dtk6Widget19DGraphicsClipEffect11qt_metacastEPKc@Base 2.0.11
 _ZN3Dtk6Widget19DGraphicsClipEffect11setClipPathERK12QPainterPath@Base 2.0.11
 _ZN3Dtk6Widget19DGraphicsClipEffect14marginsChangedE8QMargins@Base 2.0.11
 _ZN3Dtk6Widget19DGraphicsClipEffect15clipPathChangedE12QPainterPath@Base 2.0.11
 _ZN3Dtk6Widget19DGraphicsClipEffect16staticMetaObjectE@Base 2.0.11
 _ZN3Dtk6Widget19DGraphicsClipEffect4drawEP8QPainter@Base 2.0.11
 _ZN3Dtk6Widget19DGraphicsClipEffectC1EP7QObject@Base 2.0.11
 _ZN3Dtk6Widget19DGraphicsClipEffectC2EP7QObject@Base 2.0.11
 _ZN3Dtk6Widget19DGraphicsClipEffectD0Ev@Base 2.0.11
 _ZN3Dtk6Widget19DGraphicsClipEffectD1Ev@Base 2.0.11
 _ZN3Dtk6Widget19DGraphicsClipEffectD2Ev@Base 2.0.11
 _ZN3Dtk6Widget19DGraphicsGlowEffect11qt_metacallEN11QMetaObject4CallEiPPv@Base 2.0.11
 _ZN3Dtk6Widget19DGraphicsGlowEffect11qt_metacastEPKc@Base 2.0.11
 _ZN3Dtk6Widget19DGraphicsGlowEffect16staticMetaObjectE@Base 2.0.11
 _ZN3Dtk6Widget19DGraphicsGlowEffect4drawEP8QPainter@Base 2.0.11
 _ZN3Dtk6Widget19DGraphicsGlowEffectC1EP7QObject@Base 2.0.11
 _ZN3Dtk6Widget19DGraphicsGlowEffectC2EP7QObject@Base 2.0.11
 _ZN3Dtk6Widget19DGraphicsGlowEffectD0Ev@Base 2.0.11
 _ZN3Dtk6Widget19DGraphicsGlowEffectD1Ev@Base 2.0.11
 _ZN3Dtk6Widget19DGraphicsGlowEffectD2Ev@Base 2.0.11
 _ZN3Dtk6Widget19DImageButtonPrivate10loadPixmapERK7QString@Base 2.0.11
 _ZN3Dtk6Widget19DImageButtonPrivate10updateIconEv@Base 2.0.11
 _ZN3Dtk6Widget19DImageButtonPrivate8setStateENS0_12DImageButton5StateE@Base 2.0.11
 _ZN3Dtk6Widget19DImageButtonPrivateC1EPNS0_12DImageButtonE@Base 2.0.11
 _ZN3Dtk6Widget19DImageButtonPrivateC2EPNS0_12DImageButtonE@Base 2.0.11
 _ZN3Dtk6Widget19DImageButtonPrivateD0Ev@Base 2.0.11
 _ZN3Dtk6Widget19DImageButtonPrivateD1Ev@Base 2.0.11
 _ZN3Dtk6Widget19DImageButtonPrivateD2Ev@Base 2.0.11
 _ZN3Dtk6Widget19DInputDialogPrivate4initEv@Base 2.0.11
 _ZN3Dtk6Widget19DInputDialogPrivateC1EPNS0_12DInputDialogE@Base 2.0.11
 _ZN3Dtk6Widget19DInputDialogPrivateC2EPNS0_12DInputDialogE@Base 2.0.11
 _ZN3Dtk6Widget19DInputDialogPrivateD0Ev@Base 2.0.11
 _ZN3Dtk6Widget19DInputDialogPrivateD1Ev@Base 2.0.11
 _ZN3Dtk6Widget19DInputDialogPrivateD2Ev@Base 2.0.11
 _ZN3Dtk6Widget19DPasswdEditAnimated11eventFilterEP7QObjectP6QEvent@Base 2.0.11
 _ZN3Dtk6Widget19DPasswdEditAnimated11qt_metacallEN11QMetaObject4CallEiPPv@Base 2.0.11
 _ZN3Dtk6Widget19DPasswdEditAnimated11qt_metacastEPKc@Base 2.0.11
 _ZN3Dtk6Widget19DPasswdEditAnimated11setEchoModeEN9QLineEdit8EchoModeE@Base 2.0.11
 _ZN3Dtk6Widget19DPasswdEditAnimated12alertChangedEb@Base 2.0.11
 _ZN3Dtk6Widget19DPasswdEditAnimated13setSubmitIconERK7QStringS4_S4_@Base 2.0.11
 _ZN3Dtk6Widget19DPasswdEditAnimated14invalidMessageEv@Base 2.0.11
 _ZN3Dtk6Widget19DPasswdEditAnimated16editFocusChangedEb@Base 2.0.11
 _ZN3Dtk6Widget19DPasswdEditAnimated16loadingAnimationEv@Base 2.0.11
 _ZN3Dtk6Widget19DPasswdEditAnimated16staticMetaObjectE@Base 2.0.11
 _ZN3Dtk6Widget19DPasswdEditAnimated17setLoadAnimEnableEb@Base 2.0.11
 _ZN3Dtk6Widget19DPasswdEditAnimated18loadingEffectColorEv@Base 2.0.11
 _ZN3Dtk6Widget19DPasswdEditAnimated18setEyeButtonEnableEb@Base 2.0.11
 _ZN3Dtk6Widget19DPasswdEditAnimated19updateAlertPositionEv@Base 2.0.11
 _ZN3Dtk6Widget19DPasswdEditAnimated21keyboardButtonClickedEv@Base 2.0.11
 _ZN3Dtk6Widget19DPasswdEditAnimated21setLoadingEffectColorERK6QColor@Base 2.0.11
 _ZN3Dtk6Widget19DPasswdEditAnimated21setSubmitButtonEnableEb@Base 2.0.11
 _ZN3Dtk6Widget19DPasswdEditAnimated23setKeyboardButtonEnableEb@Base 2.0.11
 _ZN3Dtk6Widget19DPasswdEditAnimated26setCapslockIndicatorEnableEb@Base 2.0.11
 _ZN3Dtk6Widget19DPasswdEditAnimated5abortEv@Base 2.0.11
 _ZN3Dtk6Widget19DPasswdEditAnimated5alertEv@Base 2.0.11
 _ZN3Dtk6Widget19DPasswdEditAnimated6submitERK7QString@Base 2.0.11
 _ZN3Dtk6Widget19DPasswdEditAnimated8lineEditEv@Base 2.0.11
 _ZN3Dtk6Widget19DPasswdEditAnimated9abortAuthEv@Base 2.0.11
 _ZN3Dtk6Widget19DPasswdEditAnimated9hideAlertEv@Base 2.0.11
 _ZN3Dtk6Widget19DPasswdEditAnimated9hideEventEP10QHideEvent@Base 2.0.11
 _ZN3Dtk6Widget19DPasswdEditAnimated9showAlertERK7QString@Base 2.0.11
 _ZN3Dtk6Widget19DPasswdEditAnimated9showEventEP10QShowEvent@Base 2.0.11
 _ZN3Dtk6Widget19DPasswdEditAnimatedC1EP7QWidget@Base 2.0.11
 _ZN3Dtk6Widget19DPasswdEditAnimatedC2EP7QWidget@Base 2.0.11
 _ZN3Dtk6Widget19DPasswdEditAnimatedD0Ev@Base 2.0.11
 _ZN3Dtk6Widget19DPasswdEditAnimatedD1Ev@Base 2.0.11
 _ZN3Dtk6Widget19DPasswdEditAnimatedD2Ev@Base 2.0.11
 _ZN3Dtk6Widget19DSegmentedHighlight11qt_metacallEN11QMetaObject4CallEiPPv@Base 2.0.11
 _ZN3Dtk6Widget19DSegmentedHighlight11qt_metacastEPKc@Base 2.0.11
 _ZN3Dtk6Widget19DSegmentedHighlight16staticMetaObjectE@Base 2.0.11
 _ZN3Dtk6Widget19DSegmentedHighlightC1EP7QWidget@Base 2.0.11
 _ZN3Dtk6Widget19DSegmentedHighlightC2EP7QWidget@Base 2.0.11
 _ZN3Dtk6Widget19DSegmentedHighlightD0Ev@Base 2.0.11
 _ZN3Dtk6Widget19DSegmentedHighlightD1Ev@Base 2.0.11
 _ZN3Dtk6Widget19DSegmentedHighlightD2Ev@Base 2.0.11
 _ZN3Dtk6Widget19DStackWidgetPrivate15setCurrentIndexEi@Base 2.0.11
 _ZN3Dtk6Widget19DStackWidgetPrivate4initEv@Base 2.0.11
 _ZN3Dtk6Widget19DStackWidgetPrivateC1EPNS0_12DStackWidgetE@Base 2.0.11
 _ZN3Dtk6Widget19DStackWidgetPrivateC2EPNS0_12DStackWidgetE@Base 2.0.11
 _ZN3Dtk6Widget19DStackWidgetPrivateD0Ev@Base 2.0.11
 _ZN3Dtk6Widget19DStackWidgetPrivateD1Ev@Base 2.0.11
 _ZN3Dtk6Widget19DStackWidgetPrivateD2Ev@Base 2.0.11
 _ZN3Dtk6Widget19DSvgRendererPrivateC1EPNS_4Core7DObjectE@Base 2.0.11
 _ZN3Dtk6Widget19DSvgRendererPrivateC2EPNS_4Core7DObjectE@Base 2.0.11
 _ZN3Dtk6Widget19DSvgRendererPrivateD0Ev@Base 2.0.11
 _ZN3Dtk6Widget19DSvgRendererPrivateD1Ev@Base 2.0.11
 _ZN3Dtk6Widget19DSvgRendererPrivateD2Ev@Base 2.0.11
 _ZN3Dtk6Widget19DVideoWidgetPrivateC1EPNS0_12DVideoWidgetE@Base 2.0.11
 _ZN3Dtk6Widget19DVideoWidgetPrivateC2EPNS0_12DVideoWidgetE@Base 2.0.11
 _ZN3Dtk6Widget19DVideoWidgetPrivateD0Ev@Base 2.0.11
 _ZN3Dtk6Widget19DVideoWidgetPrivateD1Ev@Base 2.0.11
 _ZN3Dtk6Widget19DVideoWidgetPrivateD2Ev@Base 2.0.11
 _ZN3Dtk6Widget19DWindowOptionButton11qt_metacallEN11QMetaObject4CallEiPPv@Base 2.0.11
 _ZN3Dtk6Widget19DWindowOptionButton11qt_metacastEPKc@Base 2.0.11
 _ZN3Dtk6Widget19DWindowOptionButton16staticMetaObjectE@Base 2.0.11
 _ZN3Dtk6Widget19DWindowOptionButtonC1EP7QWidget@Base 2.0.11
 _ZN3Dtk6Widget19DWindowOptionButtonC2EP7QWidget@Base 2.0.11
 _ZN3Dtk6Widget19DWindowOptionButtonD0Ev@Base 2.0.11
 _ZN3Dtk6Widget19DWindowOptionButtonD1Ev@Base 2.0.11
 _ZN3Dtk6Widget19DWindowOptionButtonD2Ev@Base 2.0.11
 _ZN3Dtk6Widget20CrumbObjectInterface10drawObjectEP8QPainterRK6QRectFP13QTextDocumentiRK11QTextFormat@Base 2.0.11
 _ZN3Dtk6Widget20CrumbObjectInterface11qt_metacallEN11QMetaObject4CallEiPPv@Base 2.0.11
 _ZN3Dtk6Widget20CrumbObjectInterface11qt_metacastEPKc@Base 2.0.11
 _ZN3Dtk6Widget20CrumbObjectInterface13intrinsicSizeEP13QTextDocumentiRK11QTextFormat@Base 2.0.11
 _ZN3Dtk6Widget20CrumbObjectInterface16staticMetaObjectE@Base 2.0.11
 _ZN3Dtk6Widget20CrumbObjectInterfaceD0Ev@Base 2.0.11
 _ZN3Dtk6Widget20CrumbObjectInterfaceD1Ev@Base 2.0.11
 _ZN3Dtk6Widget20CrumbObjectInterfaceD2Ev@Base 2.0.11
 _ZN3Dtk6Widget20DIpv4LineEditPrivate20_q_setIpLineEditTextERK7QString@Base 2.0.11
 _ZN3Dtk6Widget20DIpv4LineEditPrivate21_q_updateLineEditTextEv@Base 2.0.11
 _ZN3Dtk6Widget20DIpv4LineEditPrivate4initEv@Base 2.0.11
 _ZN3Dtk6Widget20DIpv4LineEditPrivate7getEditEv@Base 2.0.11
 _ZN3Dtk6Widget20DIpv4LineEditPrivate8getLabelEv@Base 2.0.11
 _ZN3Dtk6Widget20DIpv4LineEditPrivate8setFocusEb@Base 2.0.11
 _ZN3Dtk6Widget20DIpv4LineEditPrivateC1EPNS0_13DIpv4LineEditE@Base 2.0.11
 _ZN3Dtk6Widget20DIpv4LineEditPrivateC2EPNS0_13DIpv4LineEditE@Base 2.0.11
 _ZN3Dtk6Widget20DIpv4LineEditPrivateD0Ev@Base 2.0.11
 _ZN3Dtk6Widget20DIpv4LineEditPrivateD1Ev@Base 2.0.11
 _ZN3Dtk6Widget20DIpv4LineEditPrivateD2Ev@Base 2.0.11
 _ZN3Dtk6Widget20DMPRISControlPrivate16_q_loadMPRISPathERK7QString@Base 2.0.11
 _ZN3Dtk6Widget20DMPRISControlPrivate16_q_onNextClickedEv@Base 2.0.11
 _ZN3Dtk6Widget20DMPRISControlPrivate16_q_onPlayClickedEv@Base 2.0.11
 _ZN3Dtk6Widget20DMPRISControlPrivate16_q_onPrevClickedEv@Base 2.0.11
 _ZN3Dtk6Widget20DMPRISControlPrivate17_q_onPauseClickedEv@Base 2.0.11
 _ZN3Dtk6Widget20DMPRISControlPrivate18_q_removeMPRISPathERK7QString@Base 2.0.11
 _ZN3Dtk6Widget20DMPRISControlPrivate20_q_onMetaDataChangedEv@Base 2.0.11
 _ZN3Dtk6Widget20DMPRISControlPrivate22_q_onCanControlChangedEb@Base 2.0.11
 _ZN3Dtk6Widget20DMPRISControlPrivate26_q_onPlaybackStatusChangedEv@Base 2.0.11
 _ZN3Dtk6Widget20DMPRISControlPrivate4initEv@Base 2.0.11
 _ZN3Dtk6Widget20DMPRISControlPrivateC1EPNS0_13DMPRISControlE@Base 2.0.11
 _ZN3Dtk6Widget20DMPRISControlPrivateC2EPNS0_13DMPRISControlE@Base 2.0.11
 _ZN3Dtk6Widget20DMPRISControlPrivateD0Ev@Base 2.0.11
 _ZN3Dtk6Widget20DMPRISControlPrivateD1Ev@Base 2.0.11
 _ZN3Dtk6Widget20DMPRISControlPrivateD2Ev@Base 2.0.11
 _ZN3Dtk6Widget20DPasswordEditPrivate17_q_toggleEchoModeEv@Base 2.0.11
 _ZN3Dtk6Widget20DPasswordEditPrivate4initEv@Base 2.0.11
 _ZN3Dtk6Widget20DPasswordEditPrivateC1EPNS0_13DPasswordEditE@Base 2.0.11
 _ZN3Dtk6Widget20DPasswordEditPrivateC2EPNS0_13DPasswordEditE@Base 2.0.11
 _ZN3Dtk6Widget20DPasswordEditPrivateD0Ev@Base 2.0.11
 _ZN3Dtk6Widget20DPasswordEditPrivateD1Ev@Base 2.0.11
 _ZN3Dtk6Widget20DPasswordEditPrivateD2Ev@Base 2.0.11
 _ZN3Dtk6Widget20DPictureSequenceView11qt_metacallEN11QMetaObject4CallEiPPv@Base 2.0.11
 _ZN3Dtk6Widget20DPictureSequenceView11qt_metacastEPKc@Base 2.0.11
 _ZN3Dtk6Widget20DPictureSequenceView13setSingleShotEb@Base 2.0.11
 _ZN3Dtk6Widget20DPictureSequenceView16staticMetaObjectE@Base 2.0.11
 _ZN3Dtk6Widget20DPictureSequenceView18setPictureSequenceERK11QStringListb@Base 2.0.11
 _ZN3Dtk6Widget20DPictureSequenceView18setPictureSequenceERK5QListI7QPixmapEb@Base 2.0.11
 _ZN3Dtk6Widget20DPictureSequenceView18setPictureSequenceERK7QStringRK5QPairIiiEib@Base 2.0.11
 _ZN3Dtk6Widget20DPictureSequenceView4playEv@Base 2.0.11
 _ZN3Dtk6Widget20DPictureSequenceView4stopEv@Base 2.0.11
 _ZN3Dtk6Widget20DPictureSequenceView5pauseEv@Base 2.0.11
 _ZN3Dtk6Widget20DPictureSequenceView8setSpeedEi@Base 2.0.11
 _ZN3Dtk6Widget20DPictureSequenceViewC1EP7QWidget@Base 2.0.11
 _ZN3Dtk6Widget20DPictureSequenceViewC2EP7QWidget@Base 2.0.11
 _ZN3Dtk6Widget20DPictureSequenceViewD0Ev@Base 2.0.11
 _ZN3Dtk6Widget20DPictureSequenceViewD1Ev@Base 2.0.11
 _ZN3Dtk6Widget20DPictureSequenceViewD2Ev@Base 2.0.11
 _ZN3Dtk6Widget20DSeparatorHorizontal11qt_metacallEN11QMetaObject4CallEiPPv@Base 2.0.11
 _ZN3Dtk6Widget20DSeparatorHorizontal11qt_metacastEPKc@Base 2.0.11
 _ZN3Dtk6Widget20DSeparatorHorizontal16staticMetaObjectE@Base 2.0.11
 _ZN3Dtk6Widget20DSeparatorHorizontalC1EP7QWidget@Base 2.0.11
 _ZN3Dtk6Widget20DSeparatorHorizontalC2EP7QWidget@Base 2.0.11
 _ZN3Dtk6Widget20DSeparatorHorizontalD0Ev@Base 2.0.11
 _ZN3Dtk6Widget20DSeparatorHorizontalD1Ev@Base 2.0.11
 _ZN3Dtk6Widget20DSeparatorHorizontalD2Ev@Base 2.0.11
 _ZN3Dtk6Widget20DStyleOptionLineEdit4initEP7QWidget@Base 2.0.11
 _ZN3Dtk6Widget20DSwitchButtonPrivate4initEv@Base 2.0.11
 _ZN3Dtk6Widget20DSwitchButtonPrivateC1EPNS0_13DSwitchButtonE@Base 2.0.11
 _ZN3Dtk6Widget20DSwitchButtonPrivateC2EPNS0_13DSwitchButtonE@Base 2.0.11
 _ZN3Dtk6Widget20DSwitchButtonPrivateD0Ev@Base 2.0.11
 _ZN3Dtk6Widget20DSwitchButtonPrivateD1Ev@Base 2.0.11
 _ZN3Dtk6Widget20DSwitchButtonPrivateD2Ev@Base 2.0.11
 _ZN3Dtk6Widget20DThemeManagerPrivate14registerWidgetEP7QWidgetRK7QStringRK11QStringList@Base 2.0.11
 _ZN3Dtk6Widget20DThemeManagerPrivateD0Ev@Base 2.0.11
 _ZN3Dtk6Widget20DThemeManagerPrivateD1Ev@Base 2.0.11
 _ZN3Dtk6Widget20DThemeManagerPrivateD2Ev@Base 2.0.11
 _ZN3Dtk6Widget20DTrashManagerPrivate15removeFileOrDirERK7QString@Base 2.0.11
 _ZN3Dtk6Widget20DTrashManagerPrivate18removeFromIteratorER12QDirIterator@Base 2.0.11
 _ZN3Dtk6Widget20DTrashManagerPrivateD0Ev@Base 2.0.11
 _ZN3Dtk6Widget20DTrashManagerPrivateD1Ev@Base 2.0.11
 _ZN3Dtk6Widget20DTrashManagerPrivateD2Ev@Base 2.0.11
 _ZN3Dtk6Widget20DWindowManagerHelper11qt_metacallEN11QMetaObject4CallEiPPv@Base 2.0.11
 _ZN3Dtk6Widget20DWindowManagerHelper11qt_metacastEPKc@Base 2.0.11
 _ZN3Dtk6Widget20DWindowManagerHelper16staticMetaObjectE@Base 2.0.11
 _ZN3Dtk6Widget20DWindowManagerHelper17getMotifFunctionsEPK7QWindow@Base 2.0.11
 _ZN3Dtk6Widget20DWindowManagerHelper17setMotifFunctionsEPK7QWindow6QFlagsINS1_13MotifFunctionEE@Base 2.0.11
 _ZN3Dtk6Widget20DWindowManagerHelper17setMotifFunctionsEPK7QWindow6QFlagsINS1_13MotifFunctionEEb@Base 2.0.11
 _ZN3Dtk6Widget20DWindowManagerHelper17windowListChangedEv@Base 2.0.11
 _ZN3Dtk6Widget20DWindowManagerHelper19getMotifDecorationsEPK7QWindow@Base 2.0.11
 _ZN3Dtk6Widget20DWindowManagerHelper19hasCompositeChangedEv@Base 2.0.11
 _ZN3Dtk6Widget20DWindowManagerHelper19setMotifDecorationsEPK7QWindow6QFlagsINS1_15MotifDecorationEE@Base 2.0.11
 _ZN3Dtk6Widget20DWindowManagerHelper19setMotifDecorationsEPK7QWindow6QFlagsINS1_15MotifDecorationEEb@Base 2.0.11
 _ZN3Dtk6Widget20DWindowManagerHelper20hasBlurWindowChangedEv@Base 2.0.11
 _ZN3Dtk6Widget20DWindowManagerHelper20windowManagerChangedEv@Base 2.0.11
 _ZN3Dtk6Widget20DWindowManagerHelper21popupSystemWindowMenuEPK7QWindow@Base 2.0.11
 _ZN3Dtk6Widget20DWindowManagerHelper25windowMotifWMHintsChangedEj@Base 2.0.11
 _ZN3Dtk6Widget20DWindowManagerHelper8instanceEv@Base 2.0.11
 _ZN3Dtk6Widget20DWindowManagerHelperC1EP7QObject@Base 2.0.11
 _ZN3Dtk6Widget20DWindowManagerHelperC2EP7QObject@Base 2.0.11
 _ZN3Dtk6Widget20DWindowManagerHelperD0Ev@Base 2.0.11
 _ZN3Dtk6Widget20DWindowManagerHelperD1Ev@Base 2.0.11
 _ZN3Dtk6Widget20DWindowManagerHelperD2Ev@Base 2.0.11
 _ZN3Dtk6Widget21DDoubleSpinBoxPrivate20_q_resizeInsideFrameERK5QSize@Base 2.0.11
 _ZN3Dtk6Widget21DDoubleSpinBoxPrivate4initEv@Base 2.0.11
 _ZN3Dtk6Widget21DDoubleSpinBoxPrivateC1EPNS0_14DDoubleSpinBoxE@Base 2.0.11
 _ZN3Dtk6Widget21DDoubleSpinBoxPrivateC2EPNS0_14DDoubleSpinBoxE@Base 2.0.11
 _ZN3Dtk6Widget21DDoubleSpinBoxPrivateD0Ev@Base 2.0.11
 _ZN3Dtk6Widget21DDoubleSpinBoxPrivateD1Ev@Base 2.0.11
 _ZN3Dtk6Widget21DDoubleSpinBoxPrivateD2Ev@Base 2.0.11
 _ZN3Dtk6Widget21DForeignWindowPrivateD0Ev@Base 2.0.11
 _ZN3Dtk6Widget21DForeignWindowPrivateD1Ev@Base 2.0.11
 _ZN3Dtk6Widget21DForeignWindowPrivateD2Ev@Base 2.0.11
 _ZN3Dtk6Widget21DPageIndicatorPrivate12previousPageEv@Base 2.0.11
 _ZN3Dtk6Widget21DPageIndicatorPrivate12setPageCountEi@Base 2.0.11
 _ZN3Dtk6Widget21DPageIndicatorPrivate14setCurrentPageEi@Base 2.0.11
 _ZN3Dtk6Widget21DPageIndicatorPrivate8nextPageEv@Base 2.0.11
 _ZN3Dtk6Widget21DPageIndicatorPrivateC1EPNS0_14DPageIndicatorE@Base 2.0.11
 _ZN3Dtk6Widget21DPageIndicatorPrivateC2EPNS0_14DPageIndicatorE@Base 2.0.11
 _ZN3Dtk6Widget21DPageIndicatorPrivateD0Ev@Base 2.0.11
 _ZN3Dtk6Widget21DPageIndicatorPrivateD1Ev@Base 2.0.11
 _ZN3Dtk6Widget21DPageIndicatorPrivateD2Ev@Base 2.0.11
 _ZN3Dtk6Widget21DPlatformWindowHandle11eventFilterEP7QObjectP6QEvent@Base 2.0.11
 _ZN3Dtk6Widget21DPlatformWindowHandle11qt_metacallEN11QMetaObject4CallEiPPv@Base 2.0.11
 _ZN3Dtk6Widget21DPlatformWindowHandle11qt_metacastEPKc@Base 2.0.11
 _ZN3Dtk6Widget21DPlatformWindowHandle11setClipPathERK12QPainterPath@Base 2.0.11
 _ZN3Dtk6Widget21DPlatformWindowHandle12setFrameMaskERK7QRegion@Base 2.0.11
 _ZN3Dtk6Widget21DPlatformWindowHandle13isEnabledDXcbEPK7QWidget@Base 2.0.11
 _ZN3Dtk6Widget21DPlatformWindowHandle13isEnabledDXcbEPK7QWindow@Base 2.0.11
 _ZN3Dtk6Widget21DPlatformWindowHandle13pluginVersionEv@Base 2.0.11
 _ZN3Dtk6Widget21DPlatformWindowHandle14setBorderColorERK6QColor@Base 2.0.11
 _ZN3Dtk6Widget21DPlatformWindowHandle14setBorderWidthEi@Base 2.0.11
 _ZN3Dtk6Widget21DPlatformWindowHandle14setShadowColorERK6QColor@Base 2.0.11
 _ZN3Dtk6Widget21DPlatformWindowHandle15clipPathChangedEv@Base 2.0.11
 _ZN3Dtk6Widget21DPlatformWindowHandle15setShadowOffsetERK6QPoint@Base 2.0.11
 _ZN3Dtk6Widget21DPlatformWindowHandle15setShadowRadiusEi@Base 2.0.11
 _ZN3Dtk6Widget21DPlatformWindowHandle15setWindowRadiusEi@Base 2.0.11
 _ZN3Dtk6Widget21DPlatformWindowHandle16frameMaskChangedEv@Base 2.0.11
 _ZN3Dtk6Widget21DPlatformWindowHandle16staticMetaObjectE@Base 2.0.11
 _ZN3Dtk6Widget21DPlatformWindowHandle18borderColorChangedEv@Base 2.0.11
 _ZN3Dtk6Widget21DPlatformWindowHandle18borderWidthChangedEv@Base 2.0.11
 _ZN3Dtk6Widget21DPlatformWindowHandle18shadowColorChangedEv@Base 2.0.11
 _ZN3Dtk6Widget21DPlatformWindowHandle19enableDXcbForWindowEP7QWidget@Base 2.0.11
 _ZN3Dtk6Widget21DPlatformWindowHandle19enableDXcbForWindowEP7QWidgetb@Base 2.0.11
 _ZN3Dtk6Widget21DPlatformWindowHandle19enableDXcbForWindowEP7QWindow@Base 2.0.11
 _ZN3Dtk6Widget21DPlatformWindowHandle19enableDXcbForWindowEP7QWindowb@Base 2.0.11
 _ZN3Dtk6Widget21DPlatformWindowHandle19frameMarginsChangedEv@Base 2.0.11
 _ZN3Dtk6Widget21DPlatformWindowHandle19setEnableBlurWindowEb@Base 2.0.11
 _ZN3Dtk6Widget21DPlatformWindowHandle19setEnableSystemMoveEb@Base 2.0.11
 _ZN3Dtk6Widget21DPlatformWindowHandle19shadowOffsetChangedEv@Base 2.0.11
 _ZN3Dtk6Widget21DPlatformWindowHandle19shadowRadiusChangedEv@Base 2.0.11
 _ZN3Dtk6Widget21DPlatformWindowHandle19windowRadiusChangedEv@Base 2.0.11
 _ZN3Dtk6Widget21DPlatformWindowHandle21setEnableSystemResizeEb@Base 2.0.11
 _ZN3Dtk6Widget21DPlatformWindowHandle21setWindowBlurAreaByWMEP7QWidgetRK5QListI12QPainterPathE@Base 2.0.11
 _ZN3Dtk6Widget21DPlatformWindowHandle21setWindowBlurAreaByWMEP7QWidgetRK7QVectorINS1_10WMBlurAreaEE@Base 2.0.11
 _ZN3Dtk6Widget21DPlatformWindowHandle21setWindowBlurAreaByWMEP7QWindowRK5QListI12QPainterPathE@Base 2.0.11
 _ZN3Dtk6Widget21DPlatformWindowHandle21setWindowBlurAreaByWMEP7QWindowRK7QVectorINS1_10WMBlurAreaEE@Base 2.0.11
 _ZN3Dtk6Widget21DPlatformWindowHandle21setWindowBlurAreaByWMERK5QListI12QPainterPathE@Base 2.0.11
 _ZN3Dtk6Widget21DPlatformWindowHandle21setWindowBlurAreaByWMERK7QVectorINS1_10WMBlurAreaEE@Base 2.0.11
 _ZN3Dtk6Widget21DPlatformWindowHandle23enableBlurWindowChangedEv@Base 2.0.11
 _ZN3Dtk6Widget21DPlatformWindowHandle23enableSystemMoveChangedEv@Base 2.0.11
 _ZN3Dtk6Widget21DPlatformWindowHandle24setTranslucentBackgroundEb@Base 2.0.11
 _ZN3Dtk6Widget21DPlatformWindowHandle25enableSystemResizeChangedEv@Base 2.0.11
 _ZN3Dtk6Widget21DPlatformWindowHandle26setAutoInputMaskByClipPathEb@Base 2.0.11
 _ZN3Dtk6Widget21DPlatformWindowHandle27connectHasBlurWindowChangedEP7QObjectSt8functionIFvvEE@Base 2.0.11
 _ZN3Dtk6Widget21DPlatformWindowHandle28translucentBackgroundChangedEv@Base 2.0.11
 _ZN3Dtk6Widget21DPlatformWindowHandle30autoInputMaskByClipPathChangedEv@Base 2.0.11
 _ZN3Dtk6Widget21DPlatformWindowHandle30setDisableWindowOverrideCursorEP7QWindowb@Base 2.0.11
 _ZN3Dtk6Widget21DPlatformWindowHandle33connectWindowManagerChangedSignalEP7QObjectSt8functionIFvvEE@Base 2.0.11
 _ZN3Dtk6Widget21DPlatformWindowHandleC1EP7QWidgetP7QObject@Base 2.0.11
 _ZN3Dtk6Widget21DPlatformWindowHandleC1EP7QWindowP7QObject@Base 2.0.11
 _ZN3Dtk6Widget21DPlatformWindowHandleC2EP7QWidgetP7QObject@Base 2.0.11
 _ZN3Dtk6Widget21DPlatformWindowHandleC2EP7QWindowP7QObject@Base 2.0.11
 _ZN3Dtk6Widget21DPlatformWindowHandleD0Ev@Base 2.0.11
 _ZN3Dtk6Widget21DPlatformWindowHandleD1Ev@Base 2.0.11
 _ZN3Dtk6Widget21DPlatformWindowHandleD2Ev@Base 2.0.11
 _ZN3Dtk6Widget21DRegionMonitorPrivate11_q_KeyPressERK7QStringiiS4_@Base 2.0.11
 _ZN3Dtk6Widget21DRegionMonitorPrivate13_q_CursorMoveEiiRK7QString@Base 2.0.11
 _ZN3Dtk6Widget21DRegionMonitorPrivate13_q_KeyReleaseERK7QStringiiS4_@Base 2.0.11
 _ZN3Dtk6Widget21DRegionMonitorPrivate14_q_ButtonPressEiiiRK7QString@Base 2.0.11
 _ZN3Dtk6Widget21DRegionMonitorPrivate16_q_ButtonReleaseEiiiRK7QString@Base 2.0.11
 _ZN3Dtk6Widget21DRegionMonitorPrivate21registerMonitorRegionEv@Base 2.0.11
 _ZN3Dtk6Widget21DRegionMonitorPrivate23unregisterMonitorRegionEv@Base 2.0.11
 _ZN3Dtk6Widget21DRegionMonitorPrivate4initEv@Base 2.0.11
 _ZN3Dtk6Widget21DRegionMonitorPrivateC1EPNS0_14DRegionMonitorE@Base 2.0.11
 _ZN3Dtk6Widget21DRegionMonitorPrivateC2EPNS0_14DRegionMonitorE@Base 2.0.11
 _ZN3Dtk6Widget21DRegionMonitorPrivateD0Ev@Base 2.0.11
 _ZN3Dtk6Widget21DRegionMonitorPrivateD1Ev@Base 2.0.11
 _ZN3Dtk6Widget21DRegionMonitorPrivateD2Ev@Base 2.0.11
 _ZN3Dtk6Widget21DWaterProgressPrivate12resizePixmapE5QSize@Base 2.0.11
 _ZN3Dtk6Widget21DWaterProgressPrivate5paintEP8QPainter@Base 2.0.11
 _ZN3Dtk6Widget21DWaterProgressPrivate6initUIEv@Base 2.0.11
 _ZN3Dtk6Widget21DWaterProgressPrivate8setValueEi@Base 2.0.11
 _ZN3Dtk6Widget21DWaterProgressPrivateD0Ev@Base 2.0.11
 _ZN3Dtk6Widget21DWaterProgressPrivateD1Ev@Base 2.0.11
 _ZN3Dtk6Widget21DWaterProgressPrivateD2Ev@Base 2.0.11
 _ZN3Dtk6Widget21DWindowManagerHelper_D0Ev@Base 2.0.11
 _ZN3Dtk6Widget21DWindowManagerHelper_D1Ev@Base 2.0.11
 _ZN3Dtk6Widget21DWindowManagerHelper_D2Ev@Base 2.0.11
 _ZN3Dtk6Widget21createUnsupportHandleEP7QObject@Base 2.0.11
 _ZN3Dtk6Widget22DAbstractDialogPrivate4initEv@Base 2.0.11
 _ZN3Dtk6Widget22DAbstractDialogPrivateC1EPNS0_15DAbstractDialogE@Base 2.0.11
 _ZN3Dtk6Widget22DAbstractDialogPrivateC2EPNS0_15DAbstractDialogE@Base 2.0.11
 _ZN3Dtk6Widget22DAbstractDialogPrivateD0Ev@Base 2.0.11
 _ZN3Dtk6Widget22DAbstractDialogPrivateD1Ev@Base 2.0.11
 _ZN3Dtk6Widget22DAbstractDialogPrivateD2Ev@Base 2.0.11
 _ZN3Dtk6Widget22DArrowRectanglePrivate10paintEventEP11QPaintEvent@Base 2.0.11
 _ZN3Dtk6Widget22DArrowRectanglePrivate10setContentEP7QWidget@Base 2.0.11
 _ZN3Dtk6Widget22DArrowRectanglePrivate11resizeEventEP12QResizeEvent@Base 2.0.11
 _ZN3Dtk6Widget22DArrowRectanglePrivate12verticalMoveEii@Base 2.0.11
 _ZN3Dtk6Widget22DArrowRectanglePrivate13radiusEnabledEv@Base 2.0.11
 _ZN3Dtk6Widget22DArrowRectanglePrivate14horizontalMoveEii@Base 2.0.11
 _ZN3Dtk6Widget22DArrowRectanglePrivate14updateClipPathEv@Base 2.0.11
 _ZN3Dtk6Widget22DArrowRectanglePrivate16getTopCornerPathEv@Base 2.0.11
 _ZN3Dtk6Widget22DArrowRectanglePrivate17currentScreenRectEii@Base 2.0.11
 _ZN3Dtk6Widget22DArrowRectanglePrivate17getLeftCornerPathEv@Base 2.0.11
 _ZN3Dtk6Widget22DArrowRectanglePrivate17resizeWithContentEv@Base 2.0.11
 _ZN3Dtk6Widget22DArrowRectanglePrivate18getRightCornerPathEv@Base 2.0.11
 _ZN3Dtk6Widget22DArrowRectanglePrivate19getBottomCornerPathEv@Base 2.0.11
 _ZN3Dtk6Widget22DArrowRectanglePrivate4initENS0_15DArrowRectangle9FloatModeE@Base 2.0.11
 _ZN3Dtk6Widget22DArrowRectanglePrivate4showEii@Base 2.0.11
 _ZN3Dtk6Widget22DArrowRectanglePrivateC1ENS0_15DArrowRectangle14ArrowDirectionEPS2_@Base 2.0.11
 _ZN3Dtk6Widget22DArrowRectanglePrivateC2ENS0_15DArrowRectangle14ArrowDirectionEPS2_@Base 2.0.11
 _ZN3Dtk6Widget22DArrowRectanglePrivateD0Ev@Base 2.0.11
 _ZN3Dtk6Widget22DArrowRectanglePrivateD1Ev@Base 2.0.11
 _ZN3Dtk6Widget22DArrowRectanglePrivateD2Ev@Base 2.0.11
 _ZN3Dtk6Widget22DCircleProgressPrivate5paintEP8QPainter@Base 2.0.11
 _ZN3Dtk6Widget22DCircleProgressPrivateC1EPNS0_15DCircleProgressE@Base 2.0.11
 _ZN3Dtk6Widget22DCircleProgressPrivateC2EPNS0_15DCircleProgressE@Base 2.0.11
 _ZN3Dtk6Widget22DCircleProgressPrivateD0Ev@Base 2.0.11
 _ZN3Dtk6Widget22DCircleProgressPrivateD1Ev@Base 2.0.11
 _ZN3Dtk6Widget22DCircleProgressPrivateD2Ev@Base 2.0.11
 _ZN3Dtk6Widget22DSettingsWidgetFactory11qt_metacallEN11QMetaObject4CallEiPPv@Base 2.0.11
 _ZN3Dtk6Widget22DSettingsWidgetFactory11qt_metacastEPKc@Base 2.0.11
 _ZN3Dtk6Widget22DSettingsWidgetFactory12createWidgetE8QPointerINS_4Core15DSettingsOptionEE@Base 2.0.11
 _ZN3Dtk6Widget22DSettingsWidgetFactory12createWidgetERK10QByteArray8QPointerINS_4Core15DSettingsOptionEE@Base 2.0.11
 _ZN3Dtk6Widget22DSettingsWidgetFactory14registerWidgetERK7QStringSt8functionIFP7QWidgetP7QObjectEE@Base 2.0.11
 _ZN3Dtk6Widget22DSettingsWidgetFactory16staticMetaObjectE@Base 2.0.11
 _ZN3Dtk6Widget22DSettingsWidgetFactory20createTwoColumWidgetEPNS_4Core15DSettingsOptionEP7QWidget@Base 2.0.11
 _ZN3Dtk6Widget22DSettingsWidgetFactory20createTwoColumWidgetERK10QByteArrayPNS_4Core15DSettingsOptionEP7QWidget@Base 2.0.11
 _ZN3Dtk6Widget22DSettingsWidgetFactoryC1EP7QObject@Base 2.0.11
 _ZN3Dtk6Widget22DSettingsWidgetFactoryC2EP7QObject@Base 2.0.11
 _ZN3Dtk6Widget22DSettingsWidgetFactoryD0Ev@Base 2.0.11
 _ZN3Dtk6Widget22DSettingsWidgetFactoryD1Ev@Base 2.0.11
 _ZN3Dtk6Widget22DSettingsWidgetFactoryD2Ev@Base 2.0.11
 _ZN3Dtk6Widget22DSimpleListViewPrivate14getSearchItemsE5QListIPNS0_15DSimpleListItemEE@Base 2.0.11
 _ZN3Dtk6Widget22DSimpleListViewPrivate17sortItemsByColumnEib@Base 2.0.11
 _ZN3Dtk6Widget22DSimpleListViewPrivate18getTopRenderOffsetEv@Base 2.0.11
 _ZN3Dtk6Widget22DSimpleListViewPrivate19getItemsTotalHeightEv@Base 2.0.11
 _ZN3Dtk6Widget22DSimpleListViewPrivateD0Ev@Base 2.0.11
 _ZN3Dtk6Widget22DSimpleListViewPrivateD1Ev@Base 2.0.11
 _ZN3Dtk6Widget22DSimpleListViewPrivateD2Ev@Base 2.0.11
 _ZN3Dtk6Widget23DFileChooserEditPrivate24_q_showFileChooserDialogEv@Base 2.0.11
 _ZN3Dtk6Widget23DFileChooserEditPrivate4initEv@Base 2.0.11
 _ZN3Dtk6Widget23DFileChooserEditPrivateC1EPNS0_16DFileChooserEditE@Base 2.0.11
 _ZN3Dtk6Widget23DFileChooserEditPrivateC2EPNS0_16DFileChooserEditE@Base 2.0.11
 _ZN3Dtk6Widget23DFileChooserEditPrivateD0Ev@Base 2.0.11
 _ZN3Dtk6Widget23DFileChooserEditPrivateD1Ev@Base 2.0.11
 _ZN3Dtk6Widget23DFileChooserEditPrivateD2Ev@Base 2.0.11
 _ZN3Dtk6Widget23DWindowMaxButtonPrivateD0Ev@Base 2.0.11
 _ZN3Dtk6Widget23DWindowMaxButtonPrivateD1Ev@Base 2.0.11
 _ZN3Dtk6Widget23DWindowMaxButtonPrivateD2Ev@Base 2.0.11
 _ZN3Dtk6Widget24DBlurEffectWidgetPrivate12setMaskAlphaEh@Base 2.0.11
 _ZN3Dtk6Widget24DBlurEffectWidgetPrivate12setMaskColorERK6QColor@Base 2.0.11
 _ZN3Dtk6Widget24DBlurEffectWidgetPrivate20blurEffectWidgetHashE@Base 2.0.11
 _ZN3Dtk6Widget24DBlurEffectWidgetPrivate20updateWindowBlurAreaEP7QWidget@Base 2.0.11
 _ZN3Dtk6Widget24DBlurEffectWidgetPrivate20updateWindowBlurAreaEv@Base 2.0.11
 _ZN3Dtk6Widget24DBlurEffectWidgetPrivate22windowOfBlurEffectHashE@Base 2.0.11
 _ZN3Dtk6Widget24DBlurEffectWidgetPrivate25addToBlurEffectWidgetHashEv@Base 2.0.11
 _ZN3Dtk6Widget24DBlurEffectWidgetPrivate30removeFromBlurEffectWidgetHashEv@Base 2.0.11
 _ZN3Dtk6Widget24DBlurEffectWidgetPrivateC1EPNS0_17DBlurEffectWidgetE@Base 2.0.11
 _ZN3Dtk6Widget24DBlurEffectWidgetPrivateC2EPNS0_17DBlurEffectWidgetE@Base 2.0.11
 _ZN3Dtk6Widget24DBlurEffectWidgetPrivateD0Ev@Base 2.0.11
 _ZN3Dtk6Widget24DBlurEffectWidgetPrivateD1Ev@Base 2.0.11
 _ZN3Dtk6Widget24DBlurEffectWidgetPrivateD2Ev@Base 2.0.11
 _ZN3Dtk6Widget24DBorderlessWidgetPrivate21updateContentsMarginsEv@Base 2.0.11
 _ZN3Dtk6Widget24DBorderlessWidgetPrivate4initEv@Base 2.0.11
 _ZN3Dtk6Widget24DBorderlessWidgetPrivateC1EPNS0_17DBorderlessWidgetE@Base 2.0.11
 _ZN3Dtk6Widget24DBorderlessWidgetPrivateC2EPNS0_17DBorderlessWidgetE@Base 2.0.11
 _ZN3Dtk6Widget24DBorderlessWidgetPrivateD0Ev@Base 2.0.11
 _ZN3Dtk6Widget24DBorderlessWidgetPrivateD1Ev@Base 2.0.11
 _ZN3Dtk6Widget24DBorderlessWidgetPrivateD2Ev@Base 2.0.11
 _ZN3Dtk6Widget24DBorderlessWindowPrivate4initEv@Base 2.0.11
 _ZN3Dtk6Widget24DBorderlessWindowPrivateC1EPNS0_17DBorderlessWindowE@Base 2.0.11
 _ZN3Dtk6Widget24DBorderlessWindowPrivateC2EPNS0_17DBorderlessWindowE@Base 2.0.11
 _ZN3Dtk6Widget24DBorderlessWindowPrivateD0Ev@Base 2.0.11
 _ZN3Dtk6Widget24DBorderlessWindowPrivateD1Ev@Base 2.0.11
 _ZN3Dtk6Widget24DBorderlessWindowPrivateD2Ev@Base 2.0.11
 _ZN3Dtk6Widget24DClipEffectWidgetPrivateC1EPNS0_17DClipEffectWidgetE@Base 2.0.11
 _ZN3Dtk6Widget24DClipEffectWidgetPrivateC2EPNS0_17DClipEffectWidgetE@Base 2.0.11
 _ZN3Dtk6Widget24DClipEffectWidgetPrivateD0Ev@Base 2.0.11
 _ZN3Dtk6Widget24DClipEffectWidgetPrivateD1Ev@Base 2.0.11
 _ZN3Dtk6Widget24DClipEffectWidgetPrivateD2Ev@Base 2.0.11
 _ZN3Dtk6Widget24DFileIconProviderPrivate4initEv@Base 2.0.11
 _ZN3Dtk6Widget24DFileIconProviderPrivateC1EPNS0_17DFileIconProviderE@Base 2.0.11
 _ZN3Dtk6Widget24DFileIconProviderPrivateC2EPNS0_17DFileIconProviderE@Base 2.0.11
 _ZN3Dtk6Widget24DFileIconProviderPrivateD0Ev@Base 2.0.11
 _ZN3Dtk6Widget24DFileIconProviderPrivateD1Ev@Base 2.0.11
 _ZN3Dtk6Widget24DFileIconProviderPrivateD2Ev@Base 2.0.11
 _ZN3Dtk6Widget24DLoadingIndicatorPrivate14setLoadingItemEP13QGraphicsItem@Base 2.0.11
 _ZN3Dtk6Widget24DLoadingIndicatorPrivate4initEv@Base 2.0.11
 _ZN3Dtk6Widget24DLoadingIndicatorPrivateC1EPNS0_17DLoadingIndicatorE@Base 2.0.11
 _ZN3Dtk6Widget24DLoadingIndicatorPrivateC2EPNS0_17DLoadingIndicatorE@Base 2.0.11
 _ZN3Dtk6Widget24DLoadingIndicatorPrivateD0Ev@Base 2.0.11
 _ZN3Dtk6Widget24DLoadingIndicatorPrivateD1Ev@Base 2.0.11
 _ZN3Dtk6Widget24DLoadingIndicatorPrivateD2Ev@Base 2.0.11
 _ZN3Dtk6Widget24DSegmentedControlPrivateD0Ev@Base 2.0.11
 _ZN3Dtk6Widget24DSegmentedControlPrivateD1Ev@Base 2.0.11
 _ZN3Dtk6Widget24DSegmentedControlPrivateD2Ev@Base 2.0.11
 _ZN3Dtk6Widget24createSliderOptionHandleEP7QObject@Base 2.0.11
 _ZN3Dtk6Widget25DStyleOptionSuggestButton4initEP7QWidget@Base 2.0.11
 _ZN3Dtk6Widget25DThumbnailProviderPrivate11ProduceInfoD1Ev@Base 2.0.11
 _ZN3Dtk6Widget25DThumbnailProviderPrivate11ProduceInfoD2Ev@Base 2.0.11
 _ZN3Dtk6Widget25DThumbnailProviderPrivate20hasThumbnailMimeHashE@Base 2.0.11
 _ZN3Dtk6Widget25DThumbnailProviderPrivate4initEv@Base 2.0.11
 _ZN3Dtk6Widget25DThumbnailProviderPrivateC1EPNS0_18DThumbnailProviderE@Base 2.0.11
 _ZN3Dtk6Widget25DThumbnailProviderPrivateC2EPNS0_18DThumbnailProviderE@Base 2.0.11
 _ZN3Dtk6Widget25DThumbnailProviderPrivateD0Ev@Base 2.0.11
 _ZN3Dtk6Widget25DThumbnailProviderPrivateD1Ev@Base 2.0.11
 _ZN3Dtk6Widget25DThumbnailProviderPrivateD2Ev@Base 2.0.11
 _ZN3Dtk6Widget25DWindowGroupLeaderPrivate17ensureGroupLeaderEv@Base 2.0.11
 _ZN3Dtk6Widget25DWindowGroupLeaderPrivate20setWindowGroupLeaderEjj@Base 2.0.11
 _ZN3Dtk6Widget26DGraphicsClipEffectPrivateC1EPNS0_19DGraphicsClipEffectE@Base 2.0.11
 _ZN3Dtk6Widget26DGraphicsClipEffectPrivateC2EPNS0_19DGraphicsClipEffectE@Base 2.0.11
 _ZN3Dtk6Widget26DGraphicsClipEffectPrivateD0Ev@Base 2.0.11
 _ZN3Dtk6Widget26DGraphicsClipEffectPrivateD1Ev@Base 2.0.11
 _ZN3Dtk6Widget26DGraphicsClipEffectPrivateD2Ev@Base 2.0.11
 _ZN3Dtk6Widget26DPasswdEditAnimatedPrivate12_q_inputDoneEv@Base 2.0.11
 _ZN3Dtk6Widget26DPasswdEditAnimatedPrivate17_q_hideLoadSliderEv@Base 2.0.11
 _ZN3Dtk6Widget26DPasswdEditAnimatedPrivate17_q_showLoadSliderEv@Base 2.0.11
 _ZN3Dtk6Widget26DPasswdEditAnimatedPrivate21_q_onEyeButtonClickedEv@Base 2.0.11
 _ZN3Dtk6Widget26DPasswdEditAnimatedPrivate21_q_resetCapslockStateEv@Base 2.0.11
 _ZN3Dtk6Widget26DPasswdEditAnimatedPrivate26_q_onKeyboardButtonClickedEv@Base 2.0.11
 _ZN3Dtk6Widget26DPasswdEditAnimatedPrivate4initEv@Base 2.0.11
 _ZN3Dtk6Widget26DPasswdEditAnimatedPrivateC1EPNS0_19DPasswdEditAnimatedE@Base 2.0.11
 _ZN3Dtk6Widget26DPasswdEditAnimatedPrivateC2EPNS0_19DPasswdEditAnimatedE@Base 2.0.11
 _ZN3Dtk6Widget26DPasswdEditAnimatedPrivateD0Ev@Base 2.0.11
 _ZN3Dtk6Widget26DPasswdEditAnimatedPrivateD1Ev@Base 2.0.11
 _ZN3Dtk6Widget26DPasswdEditAnimatedPrivateD2Ev@Base 2.0.11
 _ZN3Dtk6Widget26DThemeManagerStaticPrivateD0Ev@Base 2.0.11
 _ZN3Dtk6Widget26DThemeManagerStaticPrivateD1Ev@Base 2.0.11
 _ZN3Dtk6Widget26DThemeManagerStaticPrivateD2Ev@Base 2.0.11
 _ZN3Dtk6Widget26createCheckboxOptionHandleEP7QObject@Base 2.0.11
 _ZN3Dtk6Widget26createComboBoxOptionHandleEP7QObject@Base 2.0.11
 _ZN3Dtk6Widget26createLineEditOptionHandleEP7QObject@Base 2.0.11
 _ZN3Dtk6Widget27DPictureSequenceViewPrivate10loadPixmapERK7QString@Base 2.0.11
 _ZN3Dtk6Widget27DPictureSequenceViewPrivate17_q_refreshPictureEv@Base 2.0.11
 _ZN3Dtk6Widget27DPictureSequenceViewPrivate4initEv@Base 2.0.11
 _ZN3Dtk6Widget27DPictureSequenceViewPrivate4playEv@Base 2.0.11
 _ZN3Dtk6Widget27DPictureSequenceViewPrivateC1EPNS0_20DPictureSequenceViewE@Base 2.0.11
 _ZN3Dtk6Widget27DPictureSequenceViewPrivateC2EPNS0_20DPictureSequenceViewE@Base 2.0.11
 _ZN3Dtk6Widget27DPictureSequenceViewPrivateD0Ev@Base 2.0.11
 _ZN3Dtk6Widget27DPictureSequenceViewPrivateD1Ev@Base 2.0.11
 _ZN3Dtk6Widget27DPictureSequenceViewPrivateD2Ev@Base 2.0.11
 _ZN3Dtk6Widget27DSlideStackWidgetTransition11qt_metacallEN11QMetaObject4CallEiPPv@Base 2.0.11
 _ZN3Dtk6Widget27DSlideStackWidgetTransition11qt_metacastEPKc@Base 2.0.11
 _ZN3Dtk6Widget27DSlideStackWidgetTransition13updateVariantERK8QVariant@Base 2.0.11
 _ZN3Dtk6Widget27DSlideStackWidgetTransition15beginTransitionERKNS0_30DAbstractStackWidgetTransition14TransitionInfoE@Base 2.0.11
 _ZN3Dtk6Widget27DSlideStackWidgetTransition16staticMetaObjectE@Base 2.0.11
 _ZN3Dtk6Widget27DSlideStackWidgetTransitionC1EP7QObject@Base 2.0.11
 _ZN3Dtk6Widget27DSlideStackWidgetTransitionC2EP7QObject@Base 2.0.11
 _ZN3Dtk6Widget27DSlideStackWidgetTransitionD0Ev@Base 2.0.11
 _ZN3Dtk6Widget27DSlideStackWidgetTransitionD1Ev@Base 2.0.11
 _ZN3Dtk6Widget27DSlideStackWidgetTransitionD2Ev@Base 2.0.11
 _ZN3Dtk6Widget27DWindowManagerHelperPrivateD0Ev@Base 2.0.11
 _ZN3Dtk6Widget27DWindowManagerHelperPrivateD1Ev@Base 2.0.11
 _ZN3Dtk6Widget27DWindowManagerHelperPrivateD2Ev@Base 2.0.11
 _ZN3Dtk6Widget28createRadioGroupOptionHandleEP7QObject@Base 2.0.11
 _ZN3Dtk6Widget28createSpinButtonOptionHandleEP7QObject@Base 2.0.11
 _ZN3Dtk6Widget29DFileThumbnailProviderPrivateD0Ev@Base 2.0.11
 _ZN3Dtk6Widget29DFileThumbnailProviderPrivateD1Ev@Base 2.0.11
 _ZN3Dtk6Widget29DFileThumbnailProviderPrivateD2Ev@Base 2.0.11
 _ZN3Dtk6Widget29DSettingsWidgetFactoryPrivateC1EPNS0_22DSettingsWidgetFactoryE@Base 2.0.11
 _ZN3Dtk6Widget29DSettingsWidgetFactoryPrivateC2EPNS0_22DSettingsWidgetFactoryE@Base 2.0.11
 _ZN3Dtk6Widget29createButtonGroupOptionHandleEP7QObject@Base 2.0.11
 _ZN3Dtk6Widget30DAbstractStackWidgetTransition15beginTransitionERKNS1_14TransitionInfoE@Base 2.0.11
 _ZN3Dtk6Widget30DAbstractStackWidgetTransitionC1EP7QObject@Base 2.0.11
 _ZN3Dtk6Widget30DAbstractStackWidgetTransitionC1ERNS0_37DAbstractStackWidgetTransitionPrivateEP7QObject@Base 2.0.11
 _ZN3Dtk6Widget30DAbstractStackWidgetTransitionC2EP7QObject@Base 2.0.11
 _ZN3Dtk6Widget30DAbstractStackWidgetTransitionC2ERNS0_37DAbstractStackWidgetTransitionPrivateEP7QObject@Base 2.0.11
 _ZN3Dtk6Widget30createShortcutEditOptionHandleEP7QObject@Base 2.0.11
 _ZN3Dtk6Widget37DAbstractStackWidgetTransitionPrivate4initEv@Base 2.0.11
 _ZN3Dtk6Widget37DAbstractStackWidgetTransitionPrivateC1EPNS0_30DAbstractStackWidgetTransitionE@Base 2.0.11
 _ZN3Dtk6Widget37DAbstractStackWidgetTransitionPrivateC2EPNS0_30DAbstractStackWidgetTransitionE@Base 2.0.11
 _ZN3Dtk6Widget37DAbstractStackWidgetTransitionPrivateD0Ev@Base 2.0.11
 _ZN3Dtk6Widget37DAbstractStackWidgetTransitionPrivateD1Ev@Base 2.0.11
 _ZN3Dtk6Widget37DAbstractStackWidgetTransitionPrivateD2Ev@Base 2.0.11
 _ZN3Dtk6Widget6DLabel11qt_metacallEN11QMetaObject4CallEiPPv@Base 2.0.11
 _ZN3Dtk6Widget6DLabel11qt_metacastEPKc@Base 2.0.11
 _ZN3Dtk6Widget6DLabel16staticMetaObjectE@Base 2.0.11
 _ZN3Dtk6Widget6DLabelC1EP7QWidget6QFlagsIN2Qt10WindowTypeEE@Base 2.0.11
 _ZN3Dtk6Widget6DLabelC1ERK7QStringP7QWidget6QFlagsIN2Qt10WindowTypeEE@Base 2.0.11
 _ZN3Dtk6Widget6DLabelC2EP7QWidget6QFlagsIN2Qt10WindowTypeEE@Base 2.0.11
 _ZN3Dtk6Widget6DLabelC2ERK7QStringP7QWidget6QFlagsIN2Qt10WindowTypeEE@Base 2.0.11
 _ZN3Dtk6Widget6DLabelD0Ev@Base 2.0.11
 _ZN3Dtk6Widget6DLabelD1Ev@Base 2.0.11
 _ZN3Dtk6Widget6DLabelD2Ev@Base 2.0.11
 _ZN3Dtk6Widget6DToast10setOpacityEd@Base 2.0.11
 _ZN3Dtk6Widget6DToast11qt_metacallEN11QMetaObject4CallEiPPv@Base 2.0.11
 _ZN3Dtk6Widget6DToast11qt_metacastEPKc@Base 2.0.11
 _ZN3Dtk6Widget6DToast11setDurationEi@Base 2.0.11
 _ZN3Dtk6Widget6DToast14visibleChangedEb@Base 2.0.11
 _ZN3Dtk6Widget6DToast16staticMetaObjectE@Base 2.0.11
 _ZN3Dtk6Widget6DToast3popEv@Base 2.0.11
 _ZN3Dtk6Widget6DToast4packEv@Base 2.0.11
 _ZN3Dtk6Widget6DToast7setIconE5QIcon5QSize@Base 2.0.11
 _ZN3Dtk6Widget6DToast7setIconE7QString@Base 2.0.11
 _ZN3Dtk6Widget6DToast7setTextE7QString@Base 2.0.11
 _ZN3Dtk6Widget6DToast9hideEventEP10QHideEvent@Base 2.0.11
 _ZN3Dtk6Widget6DToast9showEventEP10QShowEvent@Base 2.0.11
 _ZN3Dtk6Widget6DToastC1EP7QWidget@Base 2.0.11
 _ZN3Dtk6Widget6DToastC2EP7QWidget@Base 2.0.11
 _ZN3Dtk6Widget6DToastD0Ev@Base 2.0.11
 _ZN3Dtk6Widget6DToastD1Ev@Base 2.0.11
 _ZN3Dtk6Widget6DToastD2Ev@Base 2.0.11
 _ZN3Dtk6Widget6XUtils10MoveWindowEPK7QWidgetN2Qt11MouseButtonE@Base 2.0.11
 _ZN3Dtk6Widget6XUtils12SetStayOnTopEPK7QWidgetb@Base 2.0.11
 _ZN3Dtk6Widget6XUtils13DisableResizeEPK7QWidget@Base 2.0.11
 _ZN3Dtk6Widget6XUtils13GetCornerEdgeEPK7QWidgetiiRK8QMarginsi@Base 2.0.11
 _ZN3Dtk6Widget6XUtils13IsCornerEdgetEPK7QWidgetiiRK8QMarginsi@Base 2.0.11
 _ZN3Dtk6Widget6XUtils13StartResizingEPK7QWidgetRK6QPointRKNS1_10CornerEdgeE@Base 2.0.11
 _ZN3Dtk6Widget6XUtils14SetCursorShapeEPK7QWidgeti@Base 2.0.11
 _ZN3Dtk6Widget6XUtils16CancelMoveWindowEPK7QWidgetN2Qt11MouseButtonE@Base 2.0.11
 _ZN3Dtk6Widget6XUtils16MoveResizeWindowEPK7QWidgetN2Qt11MouseButtonEiiRK8QMarginsi@Base 2.0.11
 _ZN3Dtk6Widget6XUtils16ResetCursorShapeEPK7QWidget@Base 2.0.11
 _ZN3Dtk6Widget6XUtils16SetWindowExtentsEPK7QWidgetRK8QMarginsi@Base 2.0.11
 _ZN3Dtk6Widget6XUtils16SetWindowExtentsEjRK5QRectRK8QMarginsi@Base 2.0.11
 _ZN3Dtk6Widget6XUtils16ShowNormalWindowEPK7QWidget@Base 2.0.11
 _ZN3Dtk6Widget6XUtils16SkipTaskbarPagerEPK7QWidget@Base 2.0.11
 _ZN3Dtk6Widget6XUtils17UpdateCursorShapeEPK7QWidgetiiRK8QMarginsi@Base 2.0.11
 _ZN3Dtk6Widget6XUtils18PropagateSizeHintsEPK7QWidget@Base 2.0.11
 _ZN3Dtk6Widget6XUtils19SetMouseTransparentEPK7QWidgetb@Base 2.0.11
 _ZN3Dtk6Widget6XUtils19ShowMaximizedWindowEPK7QWidget@Base 2.0.11
 _ZN3Dtk6Widget6XUtils19ShowMinimizedWindowEPK7QWidgetb@Base 2.0.11
 _ZN3Dtk6Widget6XUtils20ShowFullscreenWindowEPK7QWidgetb@Base 2.0.11
 _ZN3Dtk6Widget6XUtils21SendMoveResizeMessageEPK7QWidgetN2Qt11MouseButtonEi@Base 2.0.11
 _ZN3Dtk6Widget6XUtils21ToggleMaximizedWindowEPK7QWidget@Base 2.0.11
 _ZN3Dtk6Widget6XUtils26ChangeWindowMaximizedStateEPK7QWidgeti@Base 2.0.11
 _ZN3Dtk6Widget7Content11qt_metacallEN11QMetaObject4CallEiPPv@Base 2.0.11
 _ZN3Dtk6Widget7Content11qt_metacastEPKc@Base 2.0.11
 _ZN3Dtk6Widget7Content13scrollToGroupERK7QString@Base 2.0.11
 _ZN3Dtk6Widget7Content14mouseMoveEventEP11QMouseEvent@Base 2.0.11
 _ZN3Dtk6Widget7Content14updateSettingsERK10QByteArray8QPointerINS_4Core9DSettingsEE@Base 2.0.11
 _ZN3Dtk6Widget7Content15onScrollToGroupERK7QString@Base 2.0.11
 _ZN3Dtk6Widget7Content16staticMetaObjectE@Base 2.0.11
 _ZN3Dtk6Widget7ContentC1EP7QWidget@Base 2.0.11
 _ZN3Dtk6Widget7ContentC2EP7QWidget@Base 2.0.11
 _ZN3Dtk6Widget7ContentD0Ev@Base 2.0.11
 _ZN3Dtk6Widget7ContentD1Ev@Base 2.0.11
 _ZN3Dtk6Widget7ContentD2Ev@Base 2.0.11
 _ZN3Dtk6Widget7DDialog10addButtonsERK11QStringList@Base 2.0.11
 _ZN3Dtk6Widget7DDialog10addContentEP7QWidget6QFlagsIN2Qt13AlignmentFlagEE@Base 2.0.11
 _ZN3Dtk6Widget7DDialog10addSpacingEi@Base 2.0.11
 _ZN3Dtk6Widget7DDialog10childEventEP11QChildEvent@Base 2.0.11
 _ZN3Dtk6Widget7DDialog10closeEventEP11QCloseEvent@Base 2.0.11
 _ZN3Dtk6Widget7DDialog10setMessageERK7QString@Base 2.0.11
 _ZN3Dtk6Widget7DDialog10setSpacingEi@Base 2.0.11
 _ZN3Dtk6Widget7DDialog11qt_metacallEN11QMetaObject4CallEiPPv@Base 2.0.11
 _ZN3Dtk6Widget7DDialog11qt_metacastEPKc@Base 2.0.11
 _ZN3Dtk6Widget7DDialog11resizeEventEP12QResizeEvent@Base 2.0.11
 _ZN3Dtk6Widget7DDialog11sizeChangedE5QSize@Base 2.0.11
 _ZN3Dtk6Widget7DDialog12aboutToCloseEv@Base 2.0.11
 _ZN3Dtk6Widget7DDialog12clearButtonsEv@Base 2.0.11
 _ZN3Dtk6Widget7DDialog12clearSpacingEv@Base 2.0.11
 _ZN3Dtk6Widget7DDialog12insertButtonEiP15QAbstractButtonb@Base 2.0.11
 _ZN3Dtk6Widget7DDialog12insertButtonEiRK7QStringbNS1_10ButtonTypeE@Base 2.0.11
 _ZN3Dtk6Widget7DDialog12removeButtonEP15QAbstractButton@Base 2.0.11
 _ZN3Dtk6Widget7DDialog12removeButtonEi@Base 2.0.11
 _ZN3Dtk6Widget7DDialog12titleChangedE7QString@Base 2.0.11
 _ZN3Dtk6Widget7DDialog13buttonClickedEiRK7QString@Base 2.0.11
 _ZN3Dtk6Widget7DDialog13clearContentsEb@Base 2.0.11
 _ZN3Dtk6Widget7DDialog13insertButtonsEiRK11QStringList@Base 2.0.11
 _ZN3Dtk6Widget7DDialog13insertContentEiP7QWidget6QFlagsIN2Qt13AlignmentFlagEE@Base 2.0.11
 _ZN3Dtk6Widget7DDialog13insertSpacingEii@Base 2.0.11
 _ZN3Dtk6Widget7DDialog13removeContentEP7QWidgetb@Base 2.0.11
 _ZN3Dtk6Widget7DDialog13setButtonIconEiRK5QIcon@Base 2.0.11
 _ZN3Dtk6Widget7DDialog13setButtonTextEiRK7QString@Base 2.0.11
 _ZN3Dtk6Widget7DDialog13setIconPixmapERK7QPixmap@Base 2.0.11
 _ZN3Dtk6Widget7DDialog13setTextFormatEN2Qt10TextFormatE@Base 2.0.11
 _ZN3Dtk6Widget7DDialog14messageChangedE7QString@Base 2.0.11
 _ZN3Dtk6Widget7DDialog14visibleChangedEb@Base 2.0.11
 _ZN3Dtk6Widget7DDialog16setDefaultButtonEP15QAbstractButton@Base 2.0.11
 _ZN3Dtk6Widget7DDialog16setDefaultButtonERK7QString@Base 2.0.11
 _ZN3Dtk6Widget7DDialog16setDefaultButtonEi@Base 2.0.11
 _ZN3Dtk6Widget7DDialog16staticMetaObjectE@Base 2.0.11
 _ZN3Dtk6Widget7DDialog17textFormatChangedEN2Qt10TextFormatE@Base 2.0.11
 _ZN3Dtk6Widget7DDialog18removeButtonByTextERK7QString@Base 2.0.11
 _ZN3Dtk6Widget7DDialog23setOnButtonClickedCloseEb@Base 2.0.11
 _ZN3Dtk6Widget7DDialog31setContentLayoutContentsMarginsERK8QMargins@Base 2.0.11
 _ZN3Dtk6Widget7DDialog4execEv@Base 2.0.11
 _ZN3Dtk6Widget7DDialog6closedEv@Base 2.0.11
 _ZN3Dtk6Widget7DDialog7setIconERK5QIcon@Base 2.0.11
 _ZN3Dtk6Widget7DDialog7setIconERK5QIconRK5QSize@Base 2.0.11
 _ZN3Dtk6Widget7DDialog8setTitleERK7QString@Base 2.0.11
 _ZN3Dtk6Widget7DDialog9addButtonERK7QStringbNS1_10ButtonTypeE@Base 2.0.11
 _ZN3Dtk6Widget7DDialog9hideEventEP10QHideEvent@Base 2.0.11
 _ZN3Dtk6Widget7DDialog9showEventEP10QShowEvent@Base 2.0.11
 _ZN3Dtk6Widget7DDialogC1EP7QWidget@Base 2.0.11
 _ZN3Dtk6Widget7DDialogC1ERK7QStringS4_P7QWidget@Base 2.0.11
 _ZN3Dtk6Widget7DDialogC1ERNS0_14DDialogPrivateEP7QWidget@Base 2.0.11
 _ZN3Dtk6Widget7DDialogC2EP7QWidget@Base 2.0.11
 _ZN3Dtk6Widget7DDialogC2ERK7QStringS4_P7QWidget@Base 2.0.11
 _ZN3Dtk6Widget7DDialogC2ERNS0_14DDialogPrivateEP7QWidget@Base 2.0.11
 _ZN3Dtk6Widget7DDialogD0Ev@Base 2.0.11
 _ZN3Dtk6Widget7DDialogD1Ev@Base 2.0.11
 _ZN3Dtk6Widget7DDialogD2Ev@Base 2.0.11
 _ZN3Dtk6Widget7DOption10setCheckedEb@Base 2.0.11
 _ZN3Dtk6Widget7DOption11qt_metacallEN11QMetaObject4CallEiPPv@Base 2.0.11
 _ZN3Dtk6Widget7DOption11qt_metacastEPKc@Base 2.0.11
 _ZN3Dtk6Widget7DOption11resizeEventEP12QResizeEvent@Base 2.0.11
 _ZN3Dtk6Widget7DOption14setCheckedIconERK7QString@Base 2.0.11
 _ZN3Dtk6Widget7DOption16staticMetaObjectE@Base 2.0.11
 _ZN3Dtk6Widget7DOption6layoutEv@Base 2.0.11
 _ZN3Dtk6Widget7DOption7setIconERK7QPixmap@Base 2.0.11
 _ZN3Dtk6Widget7DOption7setIconERK7QString@Base 2.0.11
 _ZN3Dtk6Widget7DOption7setNameERK7QString@Base 2.0.11
 _ZN3Dtk6Widget7DOption8setValueERK7QString@Base 2.0.11
 _ZN3Dtk6Widget7DOptionC1EP7QWidget@Base 2.0.11
 _ZN3Dtk6Widget7DOptionC2EP7QWidget@Base 2.0.11
 _ZN3Dtk6Widget7DOptionD0Ev@Base 2.0.11
 _ZN3Dtk6Widget7DOptionD1Ev@Base 2.0.11
 _ZN3Dtk6Widget7DOptionD2Ev@Base 2.0.11
 _ZN3Dtk6Widget7DSlider10paintEventEP11QPaintEvent@Base 2.0.11
 _ZN3Dtk6Widget7DSlider10setLeftTipERK7QString@Base 2.0.11
 _ZN3Dtk6Widget7DSlider11hoverTimoutEv@Base 2.0.11
 _ZN3Dtk6Widget7DSlider11qt_metacallEN11QMetaObject4CallEiPPv@Base 2.0.11
 _ZN3Dtk6Widget7DSlider11qt_metacastEPKc@Base 2.0.11
 _ZN3Dtk6Widget7DSlider11removeScaleEi@Base 2.0.11
 _ZN3Dtk6Widget7DSlider11setRightTipERK7QString@Base 2.0.11
 _ZN3Dtk6Widget7DSlider11setTipColorERK6QColor@Base 2.0.11
 _ZN3Dtk6Widget7DSlider13setHandleTypeENS1_10HandleTypeE@Base 2.0.11
 _ZN3Dtk6Widget7DSlider13setScaleColorERK6QColor@Base 2.0.11
 _ZN3Dtk6Widget7DSlider14mouseMoveEventEP11QMouseEvent@Base 2.0.11
 _ZN3Dtk6Widget7DSlider15mousePressEventEP11QMouseEvent@Base 2.0.11
 _ZN3Dtk6Widget7DSlider16staticMetaObjectE@Base 2.0.11
 _ZN3Dtk6Widget7DSlider17mouseReleaseEventEP11QMouseEvent@Base 2.0.11
 _ZN3Dtk6Widget7DSlider17setHoverShowValueEb@Base 2.0.11
 _ZN3Dtk6Widget7DSlider18setHoverValueColorE6QColor@Base 2.0.11
 _ZN3Dtk6Widget7DSlider25setHoverShowValueIntervalEi@Base 2.0.11
 _ZN3Dtk6Widget7DSlider4initEv@Base 2.0.11
 _ZN3Dtk6Widget7DSlider8addScaleEi@Base 2.0.11
 _ZN3Dtk6Widget7DSliderC1EN2Qt11OrientationEP7QWidget@Base 2.0.11
 _ZN3Dtk6Widget7DSliderC1EP7QWidget@Base 2.0.11
 _ZN3Dtk6Widget7DSliderC1ERNS0_14DSliderPrivateE@Base 2.0.11
 _ZN3Dtk6Widget7DSliderC2EN2Qt11OrientationEP7QWidget@Base 2.0.11
 _ZN3Dtk6Widget7DSliderC2EP7QWidget@Base 2.0.11
 _ZN3Dtk6Widget7DSliderC2ERNS0_14DSliderPrivateE@Base 2.0.11
 _ZN3Dtk6Widget7DSliderD0Ev@Base 2.0.11
 _ZN3Dtk6Widget7DSliderD1Ev@Base 2.0.11
 _ZN3Dtk6Widget7DSliderD2Ev@Base 2.0.11
 _ZN3Dtk6Widget7DTabBar10setMovableEb@Base 2.0.11
 _ZN3Dtk6Widget7DTabBar10setTabDataEiRK8QVariant@Base 2.0.11
 _ZN3Dtk6Widget7DTabBar10setTabIconEiRK5QIcon@Base 2.0.11
 _ZN3Dtk6Widget7DTabBar10setTabTextEiRK7QString@Base 2.0.11
 _ZN3Dtk6Widget7DTabBar10tabRemovedEi@Base 2.0.11
 _ZN3Dtk6Widget7DTabBar11dragStartedEv@Base 2.0.11
 _ZN3Dtk6Widget7DTabBar11qt_metacallEN11QMetaObject4CallEiPPv@Base 2.0.11
 _ZN3Dtk6Widget7DTabBar11qt_metacastEPKc@Base 2.0.11
 _ZN3Dtk6Widget7DTabBar11resizeEventEP12QResizeEvent@Base 2.0.11
 _ZN3Dtk6Widget7DTabBar11setAutoHideEb@Base 2.0.11
 _ZN3Dtk6Widget7DTabBar11setDragableEb@Base 2.0.11
 _ZN3Dtk6Widget7DTabBar11setDrawBaseEb@Base 2.0.11
 _ZN3Dtk6Widget7DTabBar11setIconSizeERK5QSize@Base 2.0.11
 _ZN3Dtk6Widget7DTabBar11tabInsertedEi@Base 2.0.11
 _ZN3Dtk6Widget7DTabBar12setElideModeEN2Qt13TextElideModeE@Base 2.0.11
 _ZN3Dtk6Widget7DTabBar12setExpandingEb@Base 2.0.11
 _ZN3Dtk6Widget7DTabBar12setMaskColorE6QColor@Base 2.0.11
 _ZN3Dtk6Widget7DTabBar12setTabButtonEiN7QTabBar14ButtonPositionEP7QWidget@Base 2.0.11
 _ZN3Dtk6Widget7DTabBar12tabIsRemovedEi@Base 2.0.11
 _ZN3Dtk6Widget7DTabBar13dragMoveEventEP14QDragMoveEvent@Base 2.0.11
 _ZN3Dtk6Widget7DTabBar13setFlashColorE6QColor@Base 2.0.11
 _ZN3Dtk6Widget7DTabBar13setTabEnabledEib@Base 2.0.11
 _ZN3Dtk6Widget7DTabBar13setTabToolTipEiRK7QString@Base 2.0.11
 _ZN3Dtk6Widget7DTabBar13startTabFlashEi@Base 2.0.11
 _ZN3Dtk6Widget7DTabBar13tabBarClickedEi@Base 2.0.11
 _ZN3Dtk6Widget7DTabBar13tabIsInsertedEi@Base 2.0.11
 _ZN3Dtk6Widget7DTabBar14currentChangedEi@Base 2.0.11
 _ZN3Dtk6Widget7DTabBar14dragEnterEventEP15QDragEnterEvent@Base 2.0.11
 _ZN3Dtk6Widget7DTabBar14dragLeaveEventEP15QDragLeaveEvent@Base 2.0.11
 _ZN3Dtk6Widget7DTabBar15setCurrentIndexEi@Base 2.0.11
 _ZN3Dtk6Widget7DTabBar15setDocumentModeEb@Base 2.0.11
 _ZN3Dtk6Widget7DTabBar15setTabWhatsThisEiRK7QString@Base 2.0.11
 _ZN3Dtk6Widget7DTabBar15setTabsClosableEb@Base 2.0.11
 _ZN3Dtk6Widget7DTabBar15tabAddRequestedEv@Base 2.0.11
 _ZN3Dtk6Widget7DTabBar15tabLayoutChangeEv@Base 2.0.11
 _ZN3Dtk6Widget7DTabBar16staticMetaObjectE@Base 2.0.11
 _ZN3Dtk6Widget7DTabBar17dragActionChangedEN2Qt10DropActionE@Base 2.0.11
 _ZN3Dtk6Widget7DTabBar17setTabMaximumSizeEiRK5QSize@Base 2.0.11
 _ZN3Dtk6Widget7DTabBar17setTabMinimumSizeEiRK5QSize@Base 2.0.11
 _ZN3Dtk6Widget7DTabBar17tabCloseRequestedEi@Base 2.0.11
 _ZN3Dtk6Widget7DTabBar18insertFromMimeDataEiPK9QMimeData@Base 2.0.11
 _ZN3Dtk6Widget7DTabBar19setVisibleAddButtonEb@Base 2.0.11
 _ZN3Dtk6Widget7DTabBar19tabBarDoubleClickedEi@Base 2.0.11
 _ZN3Dtk6Widget7DTabBar19tabReleaseRequestedEi@Base 2.0.11
 _ZN3Dtk6Widget7DTabBar20setStartDragDistanceEi@Base 2.0.11
 _ZN3Dtk6Widget7DTabBar20setUsesScrollButtonsEb@Base 2.0.11
 _ZN3Dtk6Widget7DTabBar22setChangeCurrentOnDragEb@Base 2.0.11
 _ZN3Dtk6Widget7DTabBar28setSelectionBehaviorOnRemoveEN7QTabBar17SelectionBehaviorE@Base 2.0.11
 _ZN3Dtk6Widget7DTabBar29insertFromMimeDataOnDragEnterEiPK9QMimeData@Base 2.0.11
 _ZN3Dtk6Widget7DTabBar6addTabERK5QIconRK7QString@Base 2.0.11
 _ZN3Dtk6Widget7DTabBar6addTabERK7QString@Base 2.0.11
 _ZN3Dtk6Widget7DTabBar6d_funcEv@Base 2.0.11
 _ZN3Dtk6Widget7DTabBar7dragEndEN2Qt10DropActionE@Base 2.0.11
 _ZN3Dtk6Widget7DTabBar7moveTabEii@Base 2.0.11
 _ZN3Dtk6Widget7DTabBar8setShapeEN7QTabBar5ShapeE@Base 2.0.11
 _ZN3Dtk6Widget7DTabBar8stopDragEN2Qt10DropActionE@Base 2.0.11
 _ZN3Dtk6Widget7DTabBar8tabMovedEii@Base 2.0.11
 _ZN3Dtk6Widget7DTabBar9dropEventEP10QDropEvent@Base 2.0.11
 _ZN3Dtk6Widget7DTabBar9insertTabEiRK5QIconRK7QString@Base 2.0.11
 _ZN3Dtk6Widget7DTabBar9insertTabEiRK7QString@Base 2.0.11
 _ZN3Dtk6Widget7DTabBar9removeTabEi@Base 2.0.11
 _ZN3Dtk6Widget7DTabBar9startDragEi@Base 2.0.11
 _ZN3Dtk6Widget7DTabBar9tabDropedEiN2Qt10DropActionEP7QObject@Base 2.0.11
 _ZN3Dtk6Widget7DTabBarC1EP7QWidget@Base 2.0.11
 _ZN3Dtk6Widget7DTabBarC2EP7QWidget@Base 2.0.11
 _ZN3Dtk6Widget7DTabBarD0Ev@Base 2.0.11
 _ZN3Dtk6Widget7DTabBarD1Ev@Base 2.0.11
 _ZN3Dtk6Widget7DTabBarD2Ev@Base 2.0.11
 _ZN3Dtk6Widget8DSpinBox11qt_metacallEN11QMetaObject4CallEiPPv@Base 2.0.11
 _ZN3Dtk6Widget8DSpinBox11qt_metacastEPKc@Base 2.0.11
 _ZN3Dtk6Widget8DSpinBox11resizeEventEP12QResizeEvent@Base 2.0.11
 _ZN3Dtk6Widget8DSpinBox12alertChangedEb@Base 2.0.11
 _ZN3Dtk6Widget8DSpinBox15setDefaultValueEi@Base 2.0.11
 _ZN3Dtk6Widget8DSpinBox16staticMetaObjectE@Base 2.0.11
 _ZN3Dtk6Widget8DSpinBox19defaultValueChangedEi@Base 2.0.11
 _ZN3Dtk6Widget8DSpinBox8setAlertEb@Base 2.0.11
 _ZN3Dtk6Widget8DSpinBoxC1EP7QWidget@Base 2.0.11
 _ZN3Dtk6Widget8DSpinBoxC2EP7QWidget@Base 2.0.11
 _ZN3Dtk6Widget8DSpinBoxD0Ev@Base 2.0.11
 _ZN3Dtk6Widget8DSpinBoxD1Ev@Base 2.0.11
 _ZN3Dtk6Widget8DSpinBoxD2Ev@Base 2.0.11
 _ZN3Dtk6Widget8DSpinner10paintEventEP11QPaintEvent@Base 2.0.11
 _ZN3Dtk6Widget8DSpinner11qt_metacallEN11QMetaObject4CallEiPPv@Base 2.0.11
 _ZN3Dtk6Widget8DSpinner11qt_metacastEPKc@Base 2.0.11
 _ZN3Dtk6Widget8DSpinner16staticMetaObjectE@Base 2.0.11
 _ZN3Dtk6Widget8DSpinner18setBackgroundColorE6QColor@Base 2.0.11
 _ZN3Dtk6Widget8DSpinner4stopEv@Base 2.0.11
 _ZN3Dtk6Widget8DSpinner5startEv@Base 2.0.11
 _ZN3Dtk6Widget8DSpinnerC1EP7QWidget@Base 2.0.11
 _ZN3Dtk6Widget8DSpinnerC2EP7QWidget@Base 2.0.11
 _ZN3Dtk6Widget8DSpinnerD0Ev@Base 2.0.11
 _ZN3Dtk6Widget8DSpinnerD1Ev@Base 2.0.11
 _ZN3Dtk6Widget8DSpinnerD2Ev@Base 2.0.11
 _ZN3Dtk6Widget9DBaseLine10leftLayoutEv@Base 2.0.11
 _ZN3Dtk6Widget9DBaseLine11qt_metacallEN11QMetaObject4CallEiPPv@Base 2.0.11
 _ZN3Dtk6Widget9DBaseLine11qt_metacastEPKc@Base 2.0.11
 _ZN3Dtk6Widget9DBaseLine11rightLayoutEv@Base 2.0.11
 _ZN3Dtk6Widget9DBaseLine13setLeftMarginEi@Base 2.0.11
 _ZN3Dtk6Widget9DBaseLine14setLeftContentEP7QWidget@Base 2.0.11
 _ZN3Dtk6Widget9DBaseLine14setRightMarginEi@Base 2.0.11
 _ZN3Dtk6Widget9DBaseLine15setRightContentEP7QWidget@Base 2.0.11
 _ZN3Dtk6Widget9DBaseLine16staticMetaObjectE@Base 2.0.11
 _ZN3Dtk6Widget9DBaseLineC1EP7QWidget@Base 2.0.11
 _ZN3Dtk6Widget9DBaseLineC2EP7QWidget@Base 2.0.11
 _ZN3Dtk6Widget9DBaseLineD0Ev@Base 2.0.11
 _ZN3Dtk6Widget9DBaseLineD1Ev@Base 2.0.11
 _ZN3Dtk6Widget9DBaseLineD2Ev@Base 2.0.11
 _ZN3Dtk6Widget9DLineEdit11eventFilterEP7QObjectP6QEvent@Base 2.0.11
 _ZN3Dtk6Widget9DLineEdit11qt_metacallEN11QMetaObject4CallEiPPv@Base 2.0.11
 _ZN3Dtk6Widget9DLineEdit11qt_metacastEPKc@Base 2.0.11
 _ZN3Dtk6Widget9DLineEdit11resizeEventEP12QResizeEvent@Base 2.0.11
 _ZN3Dtk6Widget9DLineEdit12focusInEventEP11QFocusEvent@Base 2.0.11
 _ZN3Dtk6Widget9DLineEdit12setHoverIconERK7QString@Base 2.0.11
 _ZN3Dtk6Widget9DLineEdit12setPressIconERK7QString@Base 2.0.11
 _ZN3Dtk6Widget9DLineEdit13focusOutEventEP11QFocusEvent@Base 2.0.11
 _ZN3Dtk6Widget9DLineEdit13setNormalIconERK7QString@Base 2.0.11
 _ZN3Dtk6Widget9DLineEdit14setIconVisibleEb@Base 2.0.11
 _ZN3Dtk6Widget9DLineEdit16hideAlertMessageEv@Base 2.0.11
 _ZN3Dtk6Widget9DLineEdit16showAlertMessageERK7QStringi@Base 2.0.11
 _ZN3Dtk6Widget9DLineEdit16staticMetaObjectE@Base 2.0.11
 _ZN3Dtk6Widget9DLineEdit8setAlertEb@Base 2.0.11
 _ZN3Dtk6Widget9DLineEditC1EP7QWidget@Base 2.0.11
 _ZN3Dtk6Widget9DLineEditC1ERNS0_16DLineEditPrivateEP7QWidget@Base 2.0.11
 _ZN3Dtk6Widget9DLineEditC2EP7QWidget@Base 2.0.11
 _ZN3Dtk6Widget9DLineEditC2ERNS0_16DLineEditPrivateEP7QWidget@Base 2.0.11
 _ZN3Dtk6Widget9DLineEditD0Ev@Base 2.0.11
 _ZN3Dtk6Widget9DLineEditD1Ev@Base 2.0.11
 _ZN3Dtk6Widget9DLineEditD2Ev@Base 2.0.11
 _ZN3Dtk6Widget9DListView10insertItemEiRK8QVariant@Base 2.0.11
 _ZN3Dtk6Widget9DListView10removeItemEi@Base 2.0.11
 _ZN3Dtk6Widget9DListView11insertItemsEiRK5QListI8QVariantE@Base 2.0.11
 _ZN3Dtk6Widget9DListView11qt_metacallEN11QMetaObject4CallEiPPv@Base 2.0.11
 _ZN3Dtk6Widget9DListView11qt_metacastEPKc@Base 2.0.11
 _ZN3Dtk6Widget9DListView11removeItemsEii@Base 2.0.11
 _ZN3Dtk6Widget9DListView11resizeEventEP12QResizeEvent@Base 2.0.11
 _ZN3Dtk6Widget9DListView11setWrappingEb@Base 2.0.11
 _ZN3Dtk6Widget9DListView11triggerEditERK11QModelIndex@Base 2.0.11
 _ZN3Dtk6Widget9DListView14currentChangedERK11QModelIndex@Base 2.0.11
 _ZN3Dtk6Widget9DListView14currentChangedERK11QModelIndexS4_@Base 2.0.11
 _ZN3Dtk6Widget9DListView14setOrientationEN9QListView4FlowEb@Base 2.0.11
 _ZN3Dtk6Widget9DListView15addFooterWidgetEP7QWidget@Base 2.0.11
 _ZN3Dtk6Widget9DListView15addHeaderWidgetEP7QWidget@Base 2.0.11
 _ZN3Dtk6Widget9DListView15rowCountChangedEv@Base 2.0.11
 _ZN3Dtk6Widget9DListView16staticMetaObjectE@Base 2.0.11
 _ZN3Dtk6Widget9DListView16takeFooterWidgetEi@Base 2.0.11
 _ZN3Dtk6Widget9DListView16takeHeaderWidgetEi@Base 2.0.11
 _ZN3Dtk6Widget9DListView18orientationChangedEN2Qt11OrientationE@Base 2.0.11
 _ZN3Dtk6Widget9DListView18removeFooterWidgetEi@Base 2.0.11
 _ZN3Dtk6Widget9DListView18removeHeaderWidgetEi@Base 2.0.11
 _ZN3Dtk6Widget9DListView4editERK11QModelIndex@Base 2.0.11
 _ZN3Dtk6Widget9DListView4editERK11QModelIndexN17QAbstractItemView11EditTriggerEP6QEvent@Base 2.0.11
 _ZN3Dtk6Widget9DListView7addItemERK8QVariant@Base 2.0.11
 _ZN3Dtk6Widget9DListView7setFlowEN9QListView4FlowE@Base 2.0.11
 _ZN3Dtk6Widget9DListView8addItemsERK5QListI8QVariantE@Base 2.0.11
 _ZN3Dtk6Widget9DListView8setModelEP18QAbstractItemModel@Base 2.0.11
 _ZN3Dtk6Widget9DListViewC1EP7QWidget@Base 2.0.11
 _ZN3Dtk6Widget9DListViewC2EP7QWidget@Base 2.0.11
 _ZN3Dtk6Widget9DListViewD0Ev@Base 2.0.11
 _ZN3Dtk6Widget9DListViewD1Ev@Base 2.0.11
 _ZN3Dtk6Widget9DListViewD2Ev@Base 2.0.11
 _ZN3Dtk6Widget9DTextEdit11qt_metacallEN11QMetaObject4CallEiPPv@Base 2.0.11
 _ZN3Dtk6Widget9DTextEdit11qt_metacastEPKc@Base 2.0.11
 _ZN3Dtk6Widget9DTextEdit11resizeEventEP12QResizeEvent@Base 2.0.11
 _ZN3Dtk6Widget9DTextEdit16staticMetaObjectE@Base 2.0.11
 _ZN3Dtk6Widget9DTextEditC1EP7QWidget@Base 2.0.11
 _ZN3Dtk6Widget9DTextEditC2EP7QWidget@Base 2.0.11
 _ZN3Dtk6Widget9DTextEditD0Ev@Base 2.0.11
 _ZN3Dtk6Widget9DTextEditD1Ev@Base 2.0.11
 _ZN3Dtk6Widget9DTextEditD2Ev@Base 2.0.11
 _ZN3Dtk6Widget9DTitlebar10setVisibleEb@Base 2.0.11
 _ZN3Dtk6Widget9DTitlebar11eventFilterEP7QObjectP6QEvent@Base 2.0.11
 _ZN3Dtk6Widget9DTitlebar11mouseMovingEN2Qt11MouseButtonE@Base 2.0.11
 _ZN3Dtk6Widget9DTitlebar11qt_metacallEN11QMetaObject4CallEiPPv@Base 2.0.11
 _ZN3Dtk6Widget9DTitlebar11qt_metacastEPKc@Base 2.0.11
 _ZN3Dtk6Widget9DTitlebar11resizeEventEP12QResizeEvent@Base 2.0.11
 _ZN3Dtk6Widget9DTitlebar12mousePressedE6QFlagsIN2Qt11MouseButtonEE@Base 2.0.11
 _ZN3Dtk6Widget9DTitlebar12setEmbedModeEb@Base 2.0.11
 _ZN3Dtk6Widget9DTitlebar13doubleClickedEv@Base 2.0.11
 _ZN3Dtk6Widget9DTitlebar13optionClickedEv@Base 2.0.11
 _ZN3Dtk6Widget9DTitlebar14mouseMoveEventEP11QMouseEvent@Base 2.0.11
 _ZN3Dtk6Widget9DTitlebar14setFixedHeightEi@Base 2.0.11
 _ZN3Dtk6Widget9DTitlebar15mousePressEventEP11QMouseEvent@Base 2.0.11
 _ZN3Dtk6Widget9DTitlebar15setCustomWidgetEP7QWidgetN2Qt13AlignmentFlagEb@Base 2.0.11
 _ZN3Dtk6Widget9DTitlebar15setCustomWidgetEP7QWidgetb@Base 2.0.11
 _ZN3Dtk6Widget9DTitlebar15setDisableFlagsE6QFlagsIN2Qt10WindowTypeEE@Base 2.0.11
 _ZN3Dtk6Widget9DTitlebar16staticMetaObjectE@Base 2.0.11
 _ZN3Dtk6Widget9DTitlebar17mouseReleaseEventEP11QMouseEvent@Base 2.0.11
 _ZN3Dtk6Widget9DTitlebar17toggleWindowStateEv@Base 2.0.11
 _ZN3Dtk6Widget9DTitlebar19setSeparatorVisibleEb@Base 2.0.11
 _ZN3Dtk6Widget9DTitlebar21mouseDoubleClickEventEP11QMouseEvent@Base 2.0.11
 _ZN3Dtk6Widget9DTitlebar23setAutoHideOnFullscreenEb@Base 2.0.11
 _ZN3Dtk6Widget9DTitlebar24setBackgroundTransparentEb@Base 2.0.11
 _ZN3Dtk6Widget9DTitlebar6resizeERK5QSize@Base 2.0.11
 _ZN3Dtk6Widget9DTitlebar6resizeEii@Base 2.0.11
 _ZN3Dtk6Widget9DTitlebar7setIconERK5QIcon@Base 2.0.11
 _ZN3Dtk6Widget9DTitlebar7setMenuEP5QMenu@Base 2.0.11
 _ZN3Dtk6Widget9DTitlebar8setTitleERK7QString@Base 2.0.11
 _ZN3Dtk6Widget9DTitlebar8showMenuEv@Base 2.0.11
 _ZN3Dtk6Widget9DTitlebar9showEventEP10QShowEvent@Base 2.0.11
 _ZN3Dtk6Widget9DTitlebarC1EP7QWidget@Base 2.0.11
 _ZN3Dtk6Widget9DTitlebarC2EP7QWidget@Base 2.0.11
 _ZN3Dtk6Widget9DTitlebarD0Ev@Base 2.0.11
 _ZN3Dtk6Widget9DTitlebarD1Ev@Base 2.0.11
 _ZN3Dtk6Widget9DTitlebarD2Ev@Base 2.0.11
 (optional=templinst)_ZN4QMapI7QString8QVariantE13detach_helperEv@Base 2.0.11
 (optional=templinst)_ZN4QMapI7QString8QVariantEC1ERKS2_@Base 2.0.11
 (optional=templinst)_ZN4QMapI7QString8QVariantEC2ERKS2_@Base 2.0.11
 (optional=templinst)_ZN4QMapI7QString8QVariantED1Ev@Base 2.0.11
 (optional=templinst)_ZN4QMapI7QString8QVariantED2Ev@Base 2.0.11
 (optional=templinst)_ZN4QMapI7QStringN3Dtk6Widget16DCrumbTextFormatEE13detach_helperEv@Base 2.0.11
 (optional=templinst)_ZN4QMapI7QStringN3Dtk6Widget16DCrumbTextFormatEEC1ERKS4_@Base 2.0.11
 (optional=templinst)_ZN4QMapI7QStringN3Dtk6Widget16DCrumbTextFormatEEC2ERKS4_@Base 2.0.11
 (optional=templinst)_ZN4QMapI7QStringN3Dtk6Widget16DCrumbTextFormatEED1Ev@Base 2.0.11
 (optional=templinst)_ZN4QMapI7QStringN3Dtk6Widget16DCrumbTextFormatEED2Ev@Base 2.0.11
 (optional=templinst)_ZN4QMapI7QStringS0_E13detach_helperEv@Base 2.0.11
 (optional=templinst)_ZN4QMapI7QStringS0_EC1ERKS1_@Base 2.0.11
 (optional=templinst)_ZN4QMapI7QStringS0_EC2ERKS1_@Base 2.0.11
 (optional=templinst)_ZN4QMapI7QStringS0_ED1Ev@Base 2.0.11
 (optional=templinst)_ZN4QMapI7QStringS0_ED2Ev@Base 2.0.11
 (optional=templinst)_ZN4QMapI7QStringSt8functionIFP7QWidgetP7QObjectEEE6insertERKS0_RKS7_@Base 2.0.11
 (optional=templinst)_ZN4QMapI7QStringSt8functionIFP7QWidgetP7QObjectEEED1Ev@Base 2.0.11
 (optional=templinst)_ZN4QMapI7QStringSt8functionIFP7QWidgetP7QObjectEEED2Ev@Base 2.0.11
 (optional=templinst)_ZN4QMapIP7QWidgetS_I7QStringS2_EE13detach_helperEv@Base 2.0.11
 (optional=templinst)_ZN4QMapIPK7QWidgetPN3Dtk6Widget12DAnchorsBaseEE13detach_helperEv@Base 2.0.11
 (optional=templinst)_ZN4QMapIPK7QWidgetPN3Dtk6Widget12DAnchorsBaseEE6removeERKS2_@Base 2.0.11
 (optional=templinst)_ZN4QMapIPK7QWidgetPN3Dtk6Widget12DAnchorsBaseEED1Ev@Base 2.0.11
 (optional=templinst)_ZN4QMapIPK7QWidgetPN3Dtk6Widget12DAnchorsBaseEED2Ev@Base 2.0.11
 (optional=templinst)_ZN4QMapIPK7QWidgetbE13detach_helperEv@Base 2.0.11
 (optional=templinst)_ZN4QMapIi7QStringE13detach_helperEv@Base 2.0.11
 (optional=templinst)_ZN4QMapIi7QStringED1Ev@Base 2.0.11
 (optional=templinst)_ZN4QMapIi7QStringED2Ev@Base 2.0.11
 (optional=templinst)_ZN4QMapIiPN3Dtk6Widget11DBaseExpandEE13detach_helperEv@Base 2.0.11
 (optional=templinst)_ZN4QMapIiPN3Dtk6Widget11DBaseExpandEE6removeERKi@Base 2.0.11
 (optional=templinst)_ZN4QSetI7QStringED1Ev@Base 2.0.11
 (optional=templinst)_ZN4QSetI7QStringED2Ev@Base 2.0.11
 (optional=templinst)_ZN5QHashI5QPairI7QStringN3Dtk6Widget18DThumbnailProvider4SizeEE15QHashDummyValueE11deleteNode2EPN9QHashData4NodeE@Base 2.0.11
 (optional=templinst)_ZN5QHashI5QPairI7QStringN3Dtk6Widget18DThumbnailProvider4SizeEE15QHashDummyValueE13detach_helperEv@Base 2.0.11
 (optional=templinst)_ZN5QHashI5QPairI7QStringN3Dtk6Widget18DThumbnailProvider4SizeEE15QHashDummyValueE13duplicateNodeEPN9QHashData4NodeEPv@Base 2.0.11
 (optional=templinst)_ZN5QHashI5QPairI7QStringN3Dtk6Widget18DThumbnailProvider4SizeEE15QHashDummyValueE6removeERKS6_@Base 2.0.11
 (optional=templinst)_ZN5QHashI7QString15QHashDummyValueE11deleteNode2EPN9QHashData4NodeE@Base 2.0.11
 (optional=templinst)_ZN5QHashI7QString15QHashDummyValueE13detach_helperEv@Base 2.0.11
 (optional=templinst)_ZN5QHashI7QString15QHashDummyValueE13duplicateNodeEPN9QHashData4NodeEPv@Base 2.0.11
 (optional=templinst)_ZN5QHashI9QMimeTypexE11deleteNode2EPN9QHashData4NodeE@Base 2.0.11
 (optional=templinst)_ZN5QHashI9QMimeTypexE13duplicateNodeEPN9QHashData4NodeEPv@Base 2.0.11
 (optional=templinst)_ZN5QHashIP7QWidgetPKN3Dtk6Widget17DBlurEffectWidgetEE11deleteNode2EPN9QHashData4NodeE@Base 2.0.11
 (optional=templinst)_ZN5QHashIP7QWidgetPKN3Dtk6Widget17DBlurEffectWidgetEE13detach_helperEv@Base 2.0.11
 (optional=templinst)_ZN5QHashIP7QWidgetPKN3Dtk6Widget17DBlurEffectWidgetEE13duplicateNodeEPN9QHashData4NodeEPv@Base 2.0.11
 (optional=templinst)_ZN5QHashIP7QWidgetPKN3Dtk6Widget17DBlurEffectWidgetEE5eraseENS7_14const_iteratorE@Base 2.0.11
 (optional=templinst)_ZN5QHashIPKN3Dtk6Widget17DBlurEffectWidgetEP7QWidgetE11deleteNode2EPN9QHashData4NodeE@Base 2.0.11
 (optional=templinst)_ZN5QHashIPKN3Dtk6Widget17DBlurEffectWidgetEP7QWidgetE13detach_helperEv@Base 2.0.11
 (optional=templinst)_ZN5QHashIPKN3Dtk6Widget17DBlurEffectWidgetEP7QWidgetE13duplicateNodeEPN9QHashData4NodeEPv@Base 2.0.11
 (optional=templinst)_ZN5QHashIPKN3Dtk6Widget17DBlurEffectWidgetEP7QWidgetED1Ev@Base 2.0.11
 (optional=templinst)_ZN5QHashIPKN3Dtk6Widget17DBlurEffectWidgetEP7QWidgetED2Ev@Base 2.0.11
 (optional=templinst)_ZN5QListI10QByteArrayED1Ev@Base 2.0.11
 (optional=templinst)_ZN5QListI10QByteArrayED2Ev@Base 2.0.11
 (optional=templinst)_ZN5QListI12QPainterPathE13detach_helperEi@Base 2.0.11
 (optional=templinst)_ZN5QListI12QPainterPathE18detach_helper_growEii@Base 2.0.11
 (optional=templinst)_ZN5QListI12QPainterPathE6appendERKS0_@Base 2.0.11
 (optional=templinst)_ZN5QListI12QPainterPathEC1ERKS1_@Base 2.0.11
 (optional=templinst)_ZN5QListI12QPainterPathEC2ERKS1_@Base 2.0.11
 (optional=templinst)_ZN5QListI12QPainterPathED1Ev@Base 2.0.11
 (optional=templinst)_ZN5QListI12QPainterPathED2Ev@Base 2.0.11
 (optional=templinst)_ZN5QListI4QUrlE13detach_helperEi@Base 2.0.11
 (optional=templinst)_ZN5QListI4QUrlE18detach_helper_growEii@Base 2.0.11
 (optional=templinst)_ZN5QListI4QUrlE6appendERKS0_@Base 2.0.11
 (optional=templinst)_ZN5QListI4QUrlEC1ERKS1_@Base 2.0.11
 (optional=templinst)_ZN5QListI4QUrlEC2ERKS1_@Base 2.0.11
 (optional=templinst)_ZN5QListI4QUrlED1Ev@Base 2.0.11
 (optional=templinst)_ZN5QListI4QUrlED2Ev@Base 2.0.11
 (optional=templinst)_ZN5QListI5QIconEC1ERKS1_@Base 2.0.11
 (optional=templinst)_ZN5QListI5QIconEC2ERKS1_@Base 2.0.11
 (optional=templinst)_ZN5QListI5QSizeE13detach_helperEi@Base 2.0.11
 (optional=templinst)_ZN5QListI5QSizeE18detach_helper_growEii@Base 2.0.11
 (optional=templinst)_ZN5QListI5QSizeED1Ev@Base 2.0.11
 (optional=templinst)_ZN5QListI5QSizeED2Ev@Base 2.0.11
 (optional=templinst)_ZN5QListI6QColorE18detach_helper_growEii@Base 2.0.11
 (optional=templinst)_ZN5QListI6QColorE6appendERKS0_@Base 2.0.11
 (optional=templinst)_ZN5QListI6QColorEC1ERKS1_@Base 2.0.11
 (optional=templinst)_ZN5QListI6QColorEC2ERKS1_@Base 2.0.11
 (optional=templinst)_ZN5QListI6QColorED1Ev@Base 2.0.11
 (optional=templinst)_ZN5QListI6QColorED2Ev@Base 2.0.11
 (optional=templinst)_ZN5QListI7QLocaleE13detach_helperEi@Base 2.0.11
 (optional=templinst)_ZN5QListI7QLocaleEC1ERKS1_@Base 2.0.11
 (optional=templinst)_ZN5QListI7QLocaleEC2ERKS1_@Base 2.0.11
 (optional=templinst)_ZN5QListI7QLocaleED1Ev@Base 2.0.11
 (optional=templinst)_ZN5QListI7QLocaleED2Ev@Base 2.0.11
 (optional=templinst)_ZN5QListI7QPixmapE18detach_helper_growEii@Base 2.0.11
 (optional=templinst)_ZN5QListI7QPixmapE6appendERKS0_@Base 2.0.11
 (optional=templinst)_ZN5QListI7QPixmapED1Ev@Base 2.0.11
 (optional=templinst)_ZN5QListI7QPixmapED2Ev@Base 2.0.11
 (optional=templinst)_ZN5QListI7QRegExpE13detach_helperEi@Base 2.0.11
 (optional=templinst)_ZN5QListI7QRegExpE18detach_helper_growEii@Base 2.0.11
 (optional=templinst)_ZN5QListI7QRegExpE6appendERKS0_@Base 2.0.11
 (optional=templinst)_ZN5QListI7QRegExpEC1ERKS1_@Base 2.0.11
 (optional=templinst)_ZN5QListI7QRegExpEC2ERKS1_@Base 2.0.11
 (optional=templinst)_ZN5QListI7QRegExpED1Ev@Base 2.0.11
 (optional=templinst)_ZN5QListI7QRegExpED2Ev@Base 2.0.11
 (optional=templinst)_ZN5QListI7QStringE13detach_helperEi@Base 2.0.11
 (optional=templinst)_ZN5QListI7QStringE18detach_helper_growEii@Base 2.0.11
 (optional=templinst)_ZN5QListI7QStringE5clearEv@Base 2.0.11
 (optional=templinst)_ZN5QListI7QStringE6appendERKS0_@Base 2.0.11
 (optional=templinst)_ZN5QListI7QStringE7reserveEi@Base 2.0.11
 (optional=templinst)_ZN5QListI7QStringE9removeAllERKS0_@Base 2.0.11
 (optional=templinst)_ZN5QListI7QStringE9removeOneERKS0_@Base 2.0.11
 (optional=templinst)_ZN5QListI7QStringEC1ERKS1_@Base 2.0.11
 (optional=templinst)_ZN5QListI7QStringEC2ERKS1_@Base 2.0.11
 (optional=templinst)_ZN5QListI7QStringED1Ev@Base 2.0.11
 (optional=templinst)_ZN5QListI7QStringED2Ev@Base 2.0.11
 (optional=templinst)_ZN5QListI7QStringEpLERKS1_@Base 2.0.11
 (optional=templinst)_ZN5QListI8QPointerI7QWindowEE13detach_helperEi@Base 2.0.11
 (optional=templinst)_ZN5QListI8QPointerI7QWindowEE18detach_helper_growEii@Base 2.0.11
 (optional=templinst)_ZN5QListI8QPointerI7QWindowEE6appendERKS2_@Base 2.0.11
 (optional=templinst)_ZN5QListI8QPointerI7QWindowEED1Ev@Base 2.0.11
 (optional=templinst)_ZN5QListI8QPointerI7QWindowEED2Ev@Base 2.0.11
 (optional=templinst)_ZN5QListI8QPointerIN3Dtk4Core14DSettingsGroupEEE13detach_helperEi@Base 2.0.11
 (optional=templinst)_ZN5QListI8QPointerIN3Dtk4Core14DSettingsGroupEEED1Ev@Base 2.0.11
 (optional=templinst)_ZN5QListI8QPointerIN3Dtk4Core14DSettingsGroupEEED2Ev@Base 2.0.11
 (optional=templinst)_ZN5QListI8QPointerIN3Dtk4Core15DSettingsOptionEEE13detach_helperEi@Base 2.0.11
 (optional=templinst)_ZN5QListI8QPointerIN3Dtk4Core15DSettingsOptionEEED1Ev@Base 2.0.11
 (optional=templinst)_ZN5QListI8QPointerIN3Dtk4Core15DSettingsOptionEEED2Ev@Base 2.0.11
 (optional=templinst)_ZN5QListI8QVariantE13detach_helperEi@Base 2.0.11
 (optional=templinst)_ZN5QListI8QVariantE18detach_helper_growEii@Base 2.0.11
 (optional=templinst)_ZN5QListI8QVariantE6appendERKS0_@Base 2.0.11
 (optional=templinst)_ZN5QListI8QVariantEC1ERKS1_@Base 2.0.11
 (optional=templinst)_ZN5QListI8QVariantEC2ERKS1_@Base 2.0.11
 (optional=templinst)_ZN5QListI8QVariantED1Ev@Base 2.0.11
 (optional=templinst)_ZN5QListI8QVariantED2Ev@Base 2.0.11
 (optional=templinst)_ZN5QListIN11QVideoFrame11PixelFormatEE18detach_helper_growEii@Base 2.0.11
 (optional=templinst)_ZN5QListIN11QVideoFrame11PixelFormatEE6appendERKS1_@Base 2.0.11
 (optional=templinst)_ZN5QListIN11QVideoFrame11PixelFormatEEC1ERKS2_@Base 2.0.11
 (optional=templinst)_ZN5QListIN11QVideoFrame11PixelFormatEEC2ERKS2_@Base 2.0.11
 (optional=templinst)_ZN5QListIN11QVideoFrame11PixelFormatEED1Ev@Base 2.0.11
 (optional=templinst)_ZN5QListIN11QVideoFrame11PixelFormatEED2Ev@Base 2.0.11
 (optional=templinst)_ZN5QListIN14QTabBarPrivate3TabEE13detach_helperEi@Base 2.0.11
 (optional=templinst)_ZN5QListIN3Dtk4Core8DPathBufEE13detach_helperEi@Base 2.0.11
 (optional=templinst)_ZN5QListIN3Dtk4Core8DPathBufEE18detach_helper_growEii@Base 2.0.11
 (optional=templinst)_ZN5QListIN3Dtk4Core8DPathBufEE6appendERKS2_@Base 2.0.11
 (optional=templinst)_ZN5QListIN3Dtk4Core8DPathBufEEC1ERKS3_@Base 2.0.11
 (optional=templinst)_ZN5QListIN3Dtk4Core8DPathBufEEC2ERKS3_@Base 2.0.11
 (optional=templinst)_ZN5QListIN3Dtk4Core8DPathBufEED1Ev@Base 2.0.11
 (optional=templinst)_ZN5QListIN3Dtk4Core8DPathBufEED2Ev@Base 2.0.11
 (optional=templinst)_ZN5QListIN3Dtk6Widget16DCrumbTextFormatEE18detach_helper_growEii@Base 2.0.11
 (optional=templinst)_ZN5QListIN3Dtk6Widget16DCrumbTextFormatEE6appendERKS2_@Base 2.0.11
 (optional=templinst)_ZN5QListIN3Dtk6Widget16DCrumbTextFormatEED1Ev@Base 2.0.11
 (optional=templinst)_ZN5QListIN3Dtk6Widget16DCrumbTextFormatEED2Ev@Base 2.0.11
 (optional=templinst)_ZN5QListIN3Dtk6Widget25DThumbnailProviderPrivate11ProduceInfoEE13detach_helperEi@Base 2.0.11
 (optional=templinst)_ZN5QListIN3Dtk6Widget25DThumbnailProviderPrivate11ProduceInfoEE18detach_helper_growEii@Base 2.0.11
 (optional=templinst)_ZN5QListIN3Dtk6Widget25DThumbnailProviderPrivate11ProduceInfoEE6appendERKS3_@Base 2.0.11
 (optional=templinst)_ZN5QListIN3Dtk6Widget25DThumbnailProviderPrivate11ProduceInfoEED1Ev@Base 2.0.11
 (optional=templinst)_ZN5QListIN3Dtk6Widget25DThumbnailProviderPrivate11ProduceInfoEED2Ev@Base 2.0.11
 (optional=templinst)_ZN5QListIN3Dtk6Widget3PopEE13detach_helperEi@Base 2.0.11
 (optional=templinst)_ZN5QListIN3Dtk6Widget3PopEE18detach_helper_growEii@Base 2.0.11
 (optional=templinst)_ZN5QListIN3Dtk6Widget3PopEE6appendERKS2_@Base 2.0.11
 (optional=templinst)_ZN5QListIN3Dtk6Widget3PopEED1Ev@Base 2.0.11
 (optional=templinst)_ZN5QListIN3Dtk6Widget3PopEED2Ev@Base 2.0.11
 (optional=templinst)_ZN5QListIP11QLayoutItemE18detach_helper_growEii@Base 2.0.11
 (optional=templinst)_ZN5QListIP11QLayoutItemED1Ev@Base 2.0.11
 (optional=templinst)_ZN5QListIP11QLayoutItemED2Ev@Base 2.0.11
 (optional=templinst)_ZN5QListIP11QToolButtonE18detach_helper_growEii@Base 2.0.11
 (optional=templinst)_ZN5QListIP11QToolButtonEC1ERKS2_@Base 2.0.11
 (optional=templinst)_ZN5QListIP11QToolButtonEC2ERKS2_@Base 2.0.11
 (optional=templinst)_ZN5QListIP11QToolButtonED1Ev@Base 2.0.11
 (optional=templinst)_ZN5QListIP11QToolButtonED2Ev@Base 2.0.11
 (optional=templinst)_ZN5QListIP12QRadioButtonE18detach_helper_growEii@Base 2.0.11
 (optional=templinst)_ZN5QListIP12QRadioButtonE6appendERKS1_@Base 2.0.11
 (optional=templinst)_ZN5QListIP12QRadioButtonEC1ERKS2_@Base 2.0.11
 (optional=templinst)_ZN5QListIP12QRadioButtonEC2ERKS2_@Base 2.0.11
 (optional=templinst)_ZN5QListIP12QRadioButtonED1Ev@Base 2.0.11
 (optional=templinst)_ZN5QListIP12QRadioButtonED2Ev@Base 2.0.11
 (optional=templinst)_ZN5QListIP13QGraphicsItemE13detach_helperEi@Base 2.0.11
 (optional=templinst)_ZN5QListIP13QGraphicsItemED1Ev@Base 2.0.11
 (optional=templinst)_ZN5QListIP13QGraphicsItemED2Ev@Base 2.0.11
 (optional=templinst)_ZN5QListIP13QStandardItemE18detach_helper_growEii@Base 2.0.11
 (optional=templinst)_ZN5QListIP13QStandardItemED1Ev@Base 2.0.11
 (optional=templinst)_ZN5QListIP13QStandardItemED2Ev@Base 2.0.11
 (optional=templinst)_ZN5QListIP15QAbstractButtonE13detach_helperEi@Base 2.0.11
 (optional=templinst)_ZN5QListIP15QAbstractButtonE18detach_helper_growEii@Base 2.0.11
 (optional=templinst)_ZN5QListIP15QAbstractButtonE6appendERKS1_@Base 2.0.11
 (optional=templinst)_ZN5QListIP15QAbstractButtonEC1ERKS2_@Base 2.0.11
 (optional=templinst)_ZN5QListIP15QAbstractButtonEC2ERKS2_@Base 2.0.11
 (optional=templinst)_ZN5QListIP15QAbstractButtonED1Ev@Base 2.0.11
 (optional=templinst)_ZN5QListIP15QAbstractButtonED2Ev@Base 2.0.11
 (optional=templinst)_ZN5QListIP19QGraphicsPixmapItemE13detach_helperEi@Base 2.0.11
 (optional=templinst)_ZN5QListIP19QGraphicsPixmapItemE18detach_helper_growEii@Base 2.0.11
 (optional=templinst)_ZN5QListIP19QGraphicsPixmapItemE6appendERKS1_@Base 2.0.11
 (optional=templinst)_ZN5QListIP19QGraphicsPixmapItemED1Ev@Base 2.0.11
 (optional=templinst)_ZN5QListIP19QGraphicsPixmapItemED2Ev@Base 2.0.11
 (optional=templinst)_ZN5QListIP7QScreenE13detach_helperEi@Base 2.0.11
 (optional=templinst)_ZN5QListIP7QScreenED1Ev@Base 2.0.11
 (optional=templinst)_ZN5QListIP7QScreenED2Ev@Base 2.0.11
 (optional=templinst)_ZN5QListIP7QWidgetE13detach_helperEi@Base 2.0.11
 (optional=templinst)_ZN5QListIP7QWidgetE18detach_helper_growEii@Base 2.0.11
 (optional=templinst)_ZN5QListIP7QWidgetE5clearEv@Base 2.0.11
 (optional=templinst)_ZN5QListIP7QWidgetE6appendERKS1_@Base 2.0.11
 (optional=templinst)_ZN5QListIP7QWidgetE9removeOneERKS1_@Base 2.0.11
 (optional=templinst)_ZN5QListIP7QWidgetEC1ERKS2_@Base 2.0.11
 (optional=templinst)_ZN5QListIP7QWidgetEC2ERKS2_@Base 2.0.11
 (optional=templinst)_ZN5QListIP7QWidgetED1Ev@Base 2.0.11
 (optional=templinst)_ZN5QListIP7QWidgetED2Ev@Base 2.0.11
 (optional=templinst)_ZN5QListIP7QWindowE13detach_helperEi@Base 2.0.11
 (optional=templinst)_ZN5QListIP7QWindowED1Ev@Base 2.0.11
 (optional=templinst)_ZN5QListIP7QWindowED2Ev@Base 2.0.11
 (optional=templinst)_ZN5QListIP9QLineEditE13detach_helperEi@Base 2.0.11
 (optional=templinst)_ZN5QListIP9QLineEditE18detach_helper_growEii@Base 2.0.11
 (optional=templinst)_ZN5QListIP9QLineEditE6appendERKS1_@Base 2.0.11
 (optional=templinst)_ZN5QListIP9QLineEditE6detachEv@Base 2.0.11
 (optional=templinst)_ZN5QListIP9QLineEditED1Ev@Base 2.0.11
 (optional=templinst)_ZN5QListIP9QLineEditED2Ev@Base 2.0.11
 (optional=templinst)_ZN5QListIPKN3Dtk6Widget17DBlurEffectWidgetEE18detach_helper_growEii@Base 2.0.11
 (optional=templinst)_ZN5QListIPKN3Dtk6Widget17DBlurEffectWidgetEE6appendERKS4_@Base 2.0.11
 (optional=templinst)_ZN5QListIPKN3Dtk6Widget17DBlurEffectWidgetEEC1ERKS5_@Base 2.0.11
 (optional=templinst)_ZN5QListIPKN3Dtk6Widget17DBlurEffectWidgetEEC2ERKS5_@Base 2.0.11
 (optional=templinst)_ZN5QListIPKN3Dtk6Widget17DBlurEffectWidgetEED1Ev@Base 2.0.11
 (optional=templinst)_ZN5QListIPKN3Dtk6Widget17DBlurEffectWidgetEED2Ev@Base 2.0.11
 (optional=templinst)_ZN5QListIPN3Dtk6Widget11DBaseExpandEE18detach_helper_growEii@Base 2.0.11
 (optional=templinst)_ZN5QListIPN3Dtk6Widget11DBaseExpandEE6appendERKS3_@Base 2.0.11
 (optional=templinst)_ZN5QListIPN3Dtk6Widget11DBaseExpandEED1Ev@Base 2.0.11
 (optional=templinst)_ZN5QListIPN3Dtk6Widget11DBaseExpandEED2Ev@Base 2.0.11
 (optional=templinst)_ZN5QListIPN3Dtk6Widget14DForeignWindowEE13detach_helperEi@Base 2.0.11
 (optional=templinst)_ZN5QListIPN3Dtk6Widget14DForeignWindowEE18detach_helper_growEii@Base 2.0.11
 (optional=templinst)_ZN5QListIPN3Dtk6Widget14DForeignWindowEE6appendERKS3_@Base 2.0.11
 (optional=templinst)_ZN5QListIPN3Dtk6Widget14DForeignWindowEEC1ERKS4_@Base 2.0.11
 (optional=templinst)_ZN5QListIPN3Dtk6Widget14DForeignWindowEEC2ERKS4_@Base 2.0.11
 (optional=templinst)_ZN5QListIPN3Dtk6Widget14DForeignWindowEED1Ev@Base 2.0.11
 (optional=templinst)_ZN5QListIPN3Dtk6Widget14DForeignWindowEED2Ev@Base 2.0.11
 (optional=templinst)_ZN5QListIPN3Dtk6Widget15DSimpleListItemEE13detach_helperEi@Base 2.0.11
 (optional=templinst)_ZN5QListIPN3Dtk6Widget15DSimpleListItemEE18detach_helper_growEii@Base 2.0.11
 (optional=templinst)_ZN5QListIPN3Dtk6Widget15DSimpleListItemEE5clearEv@Base 2.0.11
 (optional=templinst)_ZN5QListIPN3Dtk6Widget15DSimpleListItemEE6appendERKS3_@Base 2.0.11
 (optional=templinst)_ZN5QListIPN3Dtk6Widget15DSimpleListItemEE9removeOneERKS3_@Base 2.0.11
 (optional=templinst)_ZN5QListIPN3Dtk6Widget15DSimpleListItemEEC1ERKS4_@Base 2.0.11
 (optional=templinst)_ZN5QListIPN3Dtk6Widget15DSimpleListItemEEC2ERKS4_@Base 2.0.11
 (optional=templinst)_ZN5QListIPN3Dtk6Widget15DSimpleListItemEED1Ev@Base 2.0.11
 (optional=templinst)_ZN5QListIPN3Dtk6Widget15DSimpleListItemEED2Ev@Base 2.0.11
 (optional=templinst)_ZN5QListIPN3Dtk6Widget15DSimpleListItemEEpLERKS4_@Base 2.0.11
 (optional=templinst)_ZN5QListIPN3Dtk6Widget7DOptionEE18detach_helper_growEii@Base 2.0.11
 (optional=templinst)_ZN5QListIPN3Dtk6Widget7DOptionEE6appendERKS3_@Base 2.0.11
 (optional=templinst)_ZN5QListIPN3Dtk6Widget7DOptionEED1Ev@Base 2.0.11
 (optional=templinst)_ZN5QListIPN3Dtk6Widget7DOptionEED2Ev@Base 2.0.11
 (optional=templinst)_ZN5QListIS_I6QColorEE18detach_helper_growEii@Base 2.0.11
 (optional=templinst)_ZN5QListIS_I6QColorEE6appendERKS1_@Base 2.0.11
 (optional=templinst)_ZN5QListIbE13detach_helperEi@Base 2.0.11
 (optional=templinst)_ZN5QListIbE18detach_helper_growEii@Base 2.0.11
 (optional=templinst)_ZN5QListIbE6appendERKb@Base 2.0.11
 (optional=templinst)_ZN5QListIbE6detachEv@Base 2.0.11
 (optional=templinst)_ZN5QListIbEC1ERKS0_@Base 2.0.11
 (optional=templinst)_ZN5QListIbEC2ERKS0_@Base 2.0.11
 (optional=templinst)_ZN5QListIbED1Ev@Base 2.0.11
 (optional=templinst)_ZN5QListIbED2Ev@Base 2.0.11
 (optional=templinst)_ZN5QListIiE13detach_helperEi@Base 2.0.11
 (optional=templinst)_ZN5QListIiE18detach_helper_growEii@Base 2.0.11
 (optional=templinst)_ZN5QListIiE6appendERKi@Base 2.0.11
 (optional=templinst)_ZN5QListIiE9removeOneERKi@Base 2.0.11
 (optional=templinst)_ZN5QListIiEC1ERKS0_@Base 2.0.11
 (optional=templinst)_ZN5QListIiEC2ERKS0_@Base 2.0.11
 (optional=templinst)_ZN5QListIiED1Ev@Base 2.0.11
 (optional=templinst)_ZN5QListIiED2Ev@Base 2.0.11
 (optional=templinst)_ZN5QListIyE18detach_helper_growEii@Base 2.0.11
 (optional=templinst)_ZN5QListIyE6appendERKy@Base 2.0.11
 (optional=templinst)_ZN5QListIyED1Ev@Base 2.0.11
 (optional=templinst)_ZN5QListIyED2Ev@Base 2.0.11
 _ZN7QStringC1EPKc@Base 2.0.11
 _ZN7QStringC2EPKc@Base 2.0.11
 _ZN7QStringD1Ev@Base 2.0.11
 _ZN7QStringD2Ev@Base 2.0.11
 _ZN7QStringaSEPKc@Base 2.0.11
 (optional=templinst)_ZN7QVectorI5QRectE11reallocDataEii6QFlagsIN10QArrayData16AllocationOptionEE@Base 2.0.11
 (optional=templinst)_ZN7QVectorIN3Dtk6Widget21DPlatformWindowHandle10WMBlurAreaEE11reallocDataEii6QFlagsIN10QArrayData16AllocationOptionEE@Base 2.0.11
 (optional=templinst)_ZN7QVectorIN3Dtk6Widget21DPlatformWindowHandle10WMBlurAreaEE6appendEOS3_@Base 2.0.11
 (optional=templinst)_ZN7QVectorIN3Dtk6Widget21DPlatformWindowHandle10WMBlurAreaEE6appendERKS3_@Base 2.0.11
 (optional=templinst)_ZN7QVectorIiE11reallocDataEii6QFlagsIN10QArrayData16AllocationOptionEE@Base 2.0.11
 (optional=templinst)_ZN7QVectorIjE11reallocDataEii6QFlagsIN10QArrayData16AllocationOptionEE@Base 2.0.11
 (optional=templinst)_ZN7QVectorIjEC1ERKS0_@Base 2.0.11
 (optional=templinst)_ZN7QVectorIjEC2ERKS0_@Base 2.0.11
 _ZN7QWidget8setFocusEv@Base 2.0.11
 _ZN8ComboBox10wheelEventEP11QWheelEvent@Base 2.0.11
 _ZN8ComboBox11qt_metacallEN11QMetaObject4CallEiPPv@Base 2.0.11
 _ZN8ComboBox11qt_metacastEPKc@Base 2.0.11
 _ZN8ComboBox16staticMetaObjectE@Base 2.0.11
 _ZN8ComboBoxC1EP7QWidget@Base 2.0.11
 _ZN8ComboBoxC2EP7QWidget@Base 2.0.11
 _ZN8ComboBoxD0Ev@Base 2.0.11
 _ZN8ComboBoxD1Ev@Base 2.0.11
 _ZN8ComboBoxD2Ev@Base 2.0.11
 (optional=templinst)_ZN8QMapDataI7QStringP7QWidgetE7destroyEv@Base 2.0.11
 (optional=templinst)_ZN8QMapDataIi7QStringE7destroyEv@Base 2.0.11
 (optional=templinst)_ZN8QMapNodeI7QString8QVariantE14destroySubTreeEv@Base 2.0.11
 (optional=templinst)_ZN8QMapNodeI7QStringN3Dtk6Widget16DCrumbTextFormatEE14destroySubTreeEv@Base 2.0.11
 (optional=templinst)_ZN8QMapNodeI7QStringP7QWidgetE14destroySubTreeEv@Base 2.0.11
 (optional=templinst)_ZN8QMapNodeI7QStringS0_E14destroySubTreeEv@Base 2.0.11
 (optional=templinst)_ZN8QMapNodeI7QStringSt8functionIFP7QWidgetP7QObjectEEE14destroySubTreeEv@Base 2.0.11
 (optional=templinst)_ZN8QMapNodeIi7QStringE14destroySubTreeEv@Base 2.0.11
 _ZN9DBusMPRIS11RateChangedEd@Base 2.0.11
 _ZN9DBusMPRIS11qt_metacallEN11QMetaObject4CallEiPPv@Base 2.0.11
 _ZN9DBusMPRIS11qt_metacastEPKc@Base 2.0.11
 _ZN9DBusMPRIS13VolumeChangedEd@Base 2.0.11
 _ZN9DBusMPRIS14CanPlayChangedEb@Base 2.0.11
 _ZN9DBusMPRIS14CanSeekChangedEb@Base 2.0.11
 _ZN9DBusMPRIS14ShuffleChangedEb@Base 2.0.11
 _ZN9DBusMPRIS15CanPauseChangedEb@Base 2.0.11
 _ZN9DBusMPRIS15MetadataChangedERK4QMapI7QString8QVariantE@Base 2.0.11
 _ZN9DBusMPRIS15PositionChangedEx@Base 2.0.11
 _ZN9DBusMPRIS16CanGoNextChangedEb@Base 2.0.11
 _ZN9DBusMPRIS16staticMetaObjectE@Base 2.0.11
 _ZN9DBusMPRIS17CanControlChangedEb@Base 2.0.11
 _ZN9DBusMPRIS17LoopStatusChangedERK7QString@Base 2.0.11
 _ZN9DBusMPRIS18MaximumRateChangedEd@Base 2.0.11
 _ZN9DBusMPRIS18MinimumRateChangedEd@Base 2.0.11
 _ZN9DBusMPRIS19__propertyChanged__ERK12QDBusMessage@Base 2.0.11
 _ZN9DBusMPRIS20CanGoPreviousChangedEb@Base 2.0.11
 _ZN9DBusMPRIS21PlaybackStatusChangedERK7QString@Base 2.0.11
 _ZN9DBusMPRIS6SeekedEx@Base 2.0.11
 _ZN9DBusMPRISC1ERK7QStringS2_RK15QDBusConnectionP7QObject@Base 2.0.11
 _ZN9DBusMPRISC2ERK7QStringS2_RK15QDBusConnectionP7QObject@Base 2.0.11
 _ZN9DBusMPRISD0Ev@Base 2.0.11
 _ZN9DBusMPRISD1Ev@Base 2.0.11
 _ZN9DBusMPRISD2Ev@Base 2.0.11
 (optional=templinst)_ZN9QtPrivate11QSlotObjectIM13DMPRISMonitorFvRK7QStringS4_S4_ENS_4ListIJS4_S4_S4_EEEvE4implEiPNS_15QSlotObjectBaseEP7QObjectPPvPb@Base 2.0.11
 (optional=templinst)_ZN9QtPrivate11QSlotObjectIM15QAbstractButtonFvvENS_4ListIJEEEvE4implEiPNS_15QSlotObjectBaseEP7QObjectPPvPb@Base 2.0.11
 (optional=templinst)_ZN9QtPrivate11QSlotObjectIM15QGraphicsEffectFvvENS_4ListIJEEEvE4implEiPNS_15QSlotObjectBaseEP7QObjectPPvPb@Base 2.0.11
 (optional=templinst)_ZN9QtPrivate11QSlotObjectIM16QAbstractSpinBoxFvvENS_4ListIJEEEvE4implEiPNS_15QSlotObjectBaseEP7QObjectPPvPb@Base 2.0.11
 (optional=templinst)_ZN9QtPrivate11QSlotObjectIM7QWidgetFbvENS_4ListIJEEEvE4implEiPNS_15QSlotObjectBaseEP7QObjectPPvPb@Base 2.0.11
 (optional=templinst)_ZN9QtPrivate11QSlotObjectIM7QWidgetFvRK5QSizeENS_4ListIJS4_EEEvE4implEiPNS_15QSlotObjectBaseEP7QObjectPPvPb@Base 2.0.11
 (optional=templinst)_ZN9QtPrivate11QSlotObjectIM7QWidgetFvbENS_4ListIJbEEEvE4implEiPNS_15QSlotObjectBaseEP7QObjectPPvPb@Base 2.0.11
 (optional=templinst)_ZN9QtPrivate11QSlotObjectIM7QWidgetFvvENS_4ListIJEEEvE4implEiPNS_15QSlotObjectBaseEP7QObjectPPvPb@Base 2.0.11
 (optional=templinst)_ZN9QtPrivate11QSlotObjectIM9QLineEditFvvENS_4ListIJEEEvE4implEiPNS_15QSlotObjectBaseEP7QObjectPPvPb@Base 2.0.11
 (optional=templinst)_ZN9QtPrivate11QSlotObjectIMN3Dtk6Widget11DListWidgetEFvvENS_4ListIJEEEvE4implEiPNS_15QSlotObjectBaseEP7QObjectPPvPb@Base 2.0.11
 (optional=templinst)_ZN9QtPrivate11QSlotObjectIMN3Dtk6Widget11DMainWindowEFvvENS_4ListIJEEEvE4implEiPNS_15QSlotObjectBaseEP7QObjectPPvPb@Base 2.0.11
 (optional=templinst)_ZN9QtPrivate11QSlotObjectIMN3Dtk6Widget11DSearchEditEFvvENS_4ListIJEEEvE4implEiPNS_15QSlotObjectBaseEP7QObjectPPvPb@Base 2.0.11
 (optional=templinst)_ZN9QtPrivate11QSlotObjectIMN3Dtk6Widget11DTickEffectEFvvENS_4ListIJEEEvE4implEiPNS_15QSlotObjectBaseEP7QObjectPPvPb@Base 2.0.11
 (optional=templinst)_ZN9QtPrivate11QSlotObjectIMN3Dtk6Widget12DExpandGroupEFvbENS_4ListIJbEEEvE4implEiPNS_15QSlotObjectBaseEP7QObjectPPvPb@Base 2.0.11
 (optional=templinst)_ZN9QtPrivate11QSlotObjectIMN3Dtk6Widget12DInputDialogEFvRK7QStringENS_4ListIJS6_EEEvE4implEiPNS_15QSlotObjectBaseEP7QObjectPPvPb@Base 2.0.11
 (optional=templinst)_ZN9QtPrivate11QSlotObjectIMN3Dtk6Widget12DInputDialogEFvbENS_4ListIJbEEEvE4implEiPNS_15QSlotObjectBaseEP7QObjectPPvPb@Base 2.0.11
 (optional=templinst)_ZN9QtPrivate11QSlotObjectIMN3Dtk6Widget12DVideoWidgetEFvvENS_4ListIJEEEvE4implEiPNS_15QSlotObjectBaseEP7QObjectPPvPb@Base 2.0.11
 (optional=templinst)_ZN9QtPrivate11QSlotObjectIMN3Dtk6Widget15ArrowHeaderLineEFvvENS_4ListIJEEEvE4implEiPNS_15QSlotObjectBaseEP7QObjectPPvPb@Base 2.0.11
 (optional=templinst)_ZN9QtPrivate11QSlotObjectIMN3Dtk6Widget15DArrowRectangleEFvvENS_4ListIJEEEvE4implEiPNS_15QSlotObjectBaseEP7QObjectPPvPb@Base 2.0.11
 (optional=templinst)_ZN9QtPrivate11QSlotObjectIMN3Dtk6Widget17DBorderlessWidgetEFvN2Qt11MouseButtonEENS_4ListIJS5_EEEvE4implEiPNS_15QSlotObjectBaseEP7QObjectPPvPb@Base 2.0.11
 (optional=templinst)_ZN9QtPrivate11QSlotObjectIMN3Dtk6Widget17DBorderlessWidgetEFvvENS_4ListIJEEEvE4implEiPNS_15QSlotObjectBaseEP7QObjectPPvPb@Base 2.0.11
 (optional=templinst)_ZN9QtPrivate11QSlotObjectIMN3Dtk6Widget17DSegmentedControlEFvvENS_4ListIJEEEvE4implEiPNS_15QSlotObjectBaseEP7QObjectPPvPb@Base 2.0.11
 (optional=templinst)_ZN9QtPrivate11QSlotObjectIMN3Dtk6Widget17DSwitchHeaderLineEFvbENS_4ListIJbEEEvE4implEiPNS_15QSlotObjectBaseEP7QObjectPPvPb@Base 2.0.11
 (optional=templinst)_ZN9QtPrivate11QSlotObjectIMN3Dtk6Widget30DAbstractStackWidgetTransitionEFvRK8QVariantENS_4ListIJS6_EEEvE4implEiPNS_15QSlotObjectBaseEP7QObjectPPvPb@Base 2.0.11
 (optional=templinst)_ZN9QtPrivate11QSlotObjectIMN3Dtk6Widget7ContentEFvRK7QStringENS_4ListIJS6_EEEvE4implEiPNS_15QSlotObjectBaseEP7QObjectPPvPb@Base 2.0.11
 (optional=templinst)_ZN9QtPrivate11QSlotObjectIMN3Dtk6Widget7DSliderEFvvENS_4ListIJEEEvE4implEiPNS_15QSlotObjectBaseEP7QObjectPPvPb@Base 2.0.11
 (optional=templinst)_ZN9QtPrivate11QSlotObjectIMN3Dtk6Widget7DTabBarEFvN2Qt10DropActionEENS_4ListIJS5_EEEvE4implEiPNS_15QSlotObjectBaseEP7QObjectPPvPb@Base 2.0.11
 (optional=templinst)_ZN9QtPrivate11QSlotObjectIMN3Dtk6Widget7DTabBarEFviENS_4ListIJiEEEvE4implEiPNS_15QSlotObjectBaseEP7QObjectPPvPb@Base 2.0.11
 (optional=templinst)_ZN9QtPrivate11QSlotObjectIMN3Dtk6Widget7DTabBarEFviiENS_4ListIJiiEEEvE4implEiPNS_15QSlotObjectBaseEP7QObjectPPvPb@Base 2.0.11
 (optional=templinst)_ZN9QtPrivate11QSlotObjectIMN3Dtk6Widget7DTabBarEFvvENS_4ListIJEEEvE4implEiPNS_15QSlotObjectBaseEP7QObjectPPvPb@Base 2.0.11
 (optional=templinst)_ZN9QtPrivate11QSlotObjectIMN3Dtk6Widget9DLineEditEKFvvENS_4ListIJEEEvE4implEiPNS_15QSlotObjectBaseEP7QObjectPPvPb@Base 2.0.11
 (optional=templinst)_ZN9QtPrivate11QSlotObjectIMN3Dtk6Widget9DListViewEFvvENS_4ListIJEEEvE4implEiPNS_15QSlotObjectBaseEP7QObjectPPvPb@Base 2.0.11
 (optional=templinst)_ZN9QtPrivate11QSlotObjectIMN3Dtk6Widget9DTitlebarEFvvENS_4ListIJEEEvE4implEiPNS_15QSlotObjectBaseEP7QObjectPPvPb@Base 2.0.11
 (optional=templinst)_ZN9QtPrivate16ConverterFunctorI5QListI12QPainterPathEN17QtMetaTypePrivate23QSequentialIterableImplENS4_33QSequentialIterableConvertFunctorIS3_EEE7convertEPKNS_25AbstractConverterFunctionEPKvPv@Base 2.0.11
 (optional=templinst)_ZN9QtPrivate16ConverterFunctorI5QListI12QPainterPathEN17QtMetaTypePrivate23QSequentialIterableImplENS4_33QSequentialIterableConvertFunctorIS3_EEED1Ev@Base 2.0.11
 (optional=templinst)_ZN9QtPrivate16ConverterFunctorI5QListI12QPainterPathEN17QtMetaTypePrivate23QSequentialIterableImplENS4_33QSequentialIterableConvertFunctorIS3_EEED2Ev@Base 2.0.11
 (optional=templinst)_ZN9QtPrivate16ConverterFunctorI5QListI5QIconEN17QtMetaTypePrivate23QSequentialIterableImplENS4_33QSequentialIterableConvertFunctorIS3_EEE7convertEPKNS_25AbstractConverterFunctionEPKvPv@Base 2.0.11
 (optional=templinst)_ZN9QtPrivate16ConverterFunctorI5QListI5QIconEN17QtMetaTypePrivate23QSequentialIterableImplENS4_33QSequentialIterableConvertFunctorIS3_EEED1Ev@Base 2.0.11
 (optional=templinst)_ZN9QtPrivate16ConverterFunctorI5QListI5QIconEN17QtMetaTypePrivate23QSequentialIterableImplENS4_33QSequentialIterableConvertFunctorIS3_EEED2Ev@Base 2.0.11
 (optional=templinst)_ZN9QtPrivate16ConverterFunctorI5QListI7QRegExpEN17QtMetaTypePrivate23QSequentialIterableImplENS4_33QSequentialIterableConvertFunctorIS3_EEE7convertEPKNS_25AbstractConverterFunctionEPKvPv@Base 2.0.11
 (optional=templinst)_ZN9QtPrivate16ConverterFunctorI5QListI7QRegExpEN17QtMetaTypePrivate23QSequentialIterableImplENS4_33QSequentialIterableConvertFunctorIS3_EEED1Ev@Base 2.0.11
 (optional=templinst)_ZN9QtPrivate16ConverterFunctorI5QListI7QRegExpEN17QtMetaTypePrivate23QSequentialIterableImplENS4_33QSequentialIterableConvertFunctorIS3_EEED2Ev@Base 2.0.11
 (optional=templinst)_ZN9QtPrivate16ConverterFunctorI5QListIP7QWidgetEN17QtMetaTypePrivate23QSequentialIterableImplENS5_33QSequentialIterableConvertFunctorIS4_EEE7convertEPKNS_25AbstractConverterFunctionEPKvPv@Base 2.0.11
 (optional=templinst)_ZN9QtPrivate16ConverterFunctorI5QListIP7QWidgetEN17QtMetaTypePrivate23QSequentialIterableImplENS5_33QSequentialIterableConvertFunctorIS4_EEED1Ev@Base 2.0.11
 (optional=templinst)_ZN9QtPrivate16ConverterFunctorI5QListIP7QWidgetEN17QtMetaTypePrivate23QSequentialIterableImplENS5_33QSequentialIterableConvertFunctorIS4_EEED2Ev@Base 2.0.11
 (optional=templinst)_ZN9QtPrivate16ConverterFunctorI5QListIPN3Dtk6Widget15DSimpleListItemEEN17QtMetaTypePrivate23QSequentialIterableImplENS7_33QSequentialIterableConvertFunctorIS6_EEE7convertEPKNS_25AbstractConverterFunctionEPKvPv@Base 2.0.11
 (optional=templinst)_ZN9QtPrivate16ConverterFunctorI5QListIPN3Dtk6Widget15DSimpleListItemEEN17QtMetaTypePrivate23QSequentialIterableImplENS7_33QSequentialIterableConvertFunctorIS6_EEED1Ev@Base 2.0.11
 (optional=templinst)_ZN9QtPrivate16ConverterFunctorI5QListIPN3Dtk6Widget15DSimpleListItemEEN17QtMetaTypePrivate23QSequentialIterableImplENS7_33QSequentialIterableConvertFunctorIS6_EEED2Ev@Base 2.0.11
 (optional=templinst)_ZN9QtPrivate16ConverterFunctorI5QListIbEN17QtMetaTypePrivate23QSequentialIterableImplENS3_33QSequentialIterableConvertFunctorIS2_EEE7convertEPKNS_25AbstractConverterFunctionEPKvPv@Base 2.0.11
 (optional=templinst)_ZN9QtPrivate16ConverterFunctorI5QListIbEN17QtMetaTypePrivate23QSequentialIterableImplENS3_33QSequentialIterableConvertFunctorIS2_EEED1Ev@Base 2.0.11
 (optional=templinst)_ZN9QtPrivate16ConverterFunctorI5QListIbEN17QtMetaTypePrivate23QSequentialIterableImplENS3_33QSequentialIterableConvertFunctorIS2_EEED2Ev@Base 2.0.11
 (optional=templinst)_ZN9QtPrivate16ConverterFunctorI7QVectorIjEN17QtMetaTypePrivate23QSequentialIterableImplENS3_33QSequentialIterableConvertFunctorIS2_EEE7convertEPKNS_25AbstractConverterFunctionEPKvPv@Base 2.0.11
 (optional=templinst)_ZN9QtPrivate16ConverterFunctorI7QVectorIjEN17QtMetaTypePrivate23QSequentialIterableImplENS3_33QSequentialIterableConvertFunctorIS2_EEED1Ev@Base 2.0.11
 (optional=templinst)_ZN9QtPrivate16ConverterFunctorI7QVectorIjEN17QtMetaTypePrivate23QSequentialIterableImplENS3_33QSequentialIterableConvertFunctorIS2_EEED2Ev@Base 2.0.11
 (optional=templinst)_ZN9QtPrivate18QFunctorSlotObjectISt8functionIFvvEELi0ENS_4ListIJEEEvE4implEiPNS_15QSlotObjectBaseEP7QObjectPPvPb@Base 2.0.11
 (optional=templinst)_ZN9QtPrivate18QFunctorSlotObjectIZN3Dtk6Widget14DTabBarPrivateC4EPNS2_7DTabBarEEUliiE_Li2ENS_4ListIJiiEEEvE4implEiPNS_15QSlotObjectBaseEP7QObjectPPvPb@Base 2.0.11
 (optional=templinst)_ZN9QtPrivate18QFunctorSlotObjectIZN3Dtk6Widget20DThemeManagerPrivate14registerWidgetEP7QWidgetRK7QStringRK11QStringListEUlS5_S6_E1_Li2ENS_4ListIJS5_S6_EEEvE4implEiPNS_15QSlotObjectBaseEP7QObjectPPvPb@Base 2.0.11
 (optional=templinst)_ZN9QtPrivate18QFunctorSlotObjectIZN3Dtk6Widget20DThemeManagerPrivate14registerWidgetEP7QWidgetRK7QStringRK11QStringListEUlS6_E0_Li1ENS_4ListIJS6_EEEvE4implEiPNS_15QSlotObjectBaseEP7QObjectPPvPb@Base 2.0.11
 (optional=templinst)_ZN9QtPrivate18QFunctorSlotObjectIZN3Dtk6Widget20DThemeManagerPrivate14registerWidgetEP7QWidgetRK7QStringRK11QStringListEUlvE2_Li0ENS_4ListIJEEEvE4implEiPNS_15QSlotObjectBaseEP7QObjectPPvPb@Base 2.0.11
 (optional=templinst)_ZN9QtPrivate28QVariantValueHelperInterfaceI4QMapI7QString8QVariantEE6invokeERKS3_@Base 2.0.11
 _ZN9QtPrivate8RefCount3refEv@Base 2.0.11
 (optional=templinst)_ZN9__gnu_cxx12__to_xstringINSt7__cxx1112basic_stringIcSt11char_traitsIcESaIcEEEcEET_PFiPT0_mPKS8_P13__va_list_tagEmSB_z@Base 2.0.11
 _ZNK11ButtonGroup10metaObjectEv@Base 2.0.11
 _ZNK12ContentTitle10metaObjectEv@Base 2.0.11
 _ZNK12DThemeHelper10metaObjectEv@Base 2.0.11
 _ZNK12ShortcutEdit10metaObjectEv@Base 2.0.11
 _ZNK13DBusInterface10metaObjectEv@Base 2.0.11
 _ZNK13DMPRISMonitor10metaObjectEv@Base 2.0.11
 _ZNK13DMPRISMonitor13mprisAcquiredERK7QString@Base 2.0.11
 _ZNK13DMPRISMonitor9mprisLostERK7QString@Base 2.0.11
 _ZNK18NavigationDelegate10metaObjectEv@Base 2.0.11
 _ZNK18NavigationDelegate12createEditorEP7QWidgetRK20QStyleOptionViewItemRK11QModelIndex@Base 2.0.11
 _ZNK18NavigationDelegate12setModelDataEP7QWidgetP18QAbstractItemModelRK11QModelIndex@Base 2.0.11
 _ZNK18NavigationDelegate13setEditorDataEP7QWidgetRK11QModelIndex@Base 2.0.11
 _ZNK18NavigationDelegate15initStyleOptionEP20QStyleOptionViewItemRK11QModelIndex@Base 2.0.11
 _ZNK18NavigationDelegate5paintEP8QPainterRK20QStyleOptionViewItemRK11QModelIndex@Base 2.0.11
 _ZNK18NavigationDelegate8sizeHintERK20QStyleOptionViewItemRK11QModelIndex@Base 2.0.11
 _ZNK19ShortcutEditPrivate10stringSizeERK7QString@Base 2.0.11
 _ZNK19ShortcutEditPrivate12drawTextRectERK5QRectRK7QStringR8QPainter@Base 2.0.11
 _ZNK26StartupNotificationMonitor10metaObjectEv@Base 2.0.11
 _ZNK3Dtk6Widget10DBoxWidget10metaObjectEv@Base 2.0.11
 _ZNK3Dtk6Widget10DBoxWidget6layoutEv@Base 2.0.11
 _ZNK3Dtk6Widget10DBoxWidget8sizeHintEv@Base 2.0.11
 _ZNK3Dtk6Widget10DBoxWidget9directionEv@Base 2.0.11
 _ZNK3Dtk6Widget10DCrumbEdit10metaObjectEv@Base 2.0.11
 _ZNK3Dtk6Widget10DCrumbEdit11crumbRadiusEv@Base 2.0.11
 _ZNK3Dtk6Widget10DCrumbEdit12containCrumbERK7QString@Base 2.0.11
 _ZNK3Dtk6Widget10DCrumbEdit13crumbReadOnlyEv@Base 2.0.11
 _ZNK3Dtk6Widget10DCrumbEdit14makeTextFormatENS1_9CrumbTypeE@Base 2.0.11
 _ZNK3Dtk6Widget10DCrumbEdit14makeTextFormatEv@Base 2.0.11
 _ZNK3Dtk6Widget10DCrumbEdit15crumbTextFormatERK7QString@Base 2.0.11
 _ZNK3Dtk6Widget10DCrumbEdit18dualClickMakeCrumbEv@Base 2.0.11
 _ZNK3Dtk6Widget10DCrumbEdit21canInsertFromMimeDataEPK9QMimeData@Base 2.0.11
 _ZNK3Dtk6Widget10DCrumbEdit27createMimeDataFromSelectionEv@Base 2.0.11
 _ZNK3Dtk6Widget10DCrumbEdit8splitterEv@Base 2.0.11
 _ZNK3Dtk6Widget10DCrumbEdit9crumbListEv@Base 2.0.11
 _ZNK3Dtk6Widget10DScrollBar10metaObjectEv@Base 2.0.11
 _ZNK3Dtk6Widget10DScrollBar8autoHideEv@Base 2.0.11
 _ZNK3Dtk6Widget10LoadSlider15loadSliderColorEv@Base 2.0.11
 _ZNK3Dtk6Widget10Navigation10metaObjectEv@Base 2.0.11
 _ZNK3Dtk6Widget11DBaseButton10metaObjectEv@Base 2.0.11
 _ZNK3Dtk6Widget11DBaseExpand10metaObjectEv@Base 2.0.11
 _ZNK3Dtk6Widget11DBaseExpand6expandEv@Base 2.0.11
 _ZNK3Dtk6Widget11DButtonList10metaObjectEv@Base 2.0.11
 _ZNK3Dtk6Widget11DFileDialog10metaObjectEv@Base 2.0.11
 _ZNK3Dtk6Widget11DFileDialog16getComboBoxValueERK7QString@Base 2.0.11
 _ZNK3Dtk6Widget11DFileDialog16getLineEditValueERK7QString@Base 2.0.11
 _ZNK3Dtk6Widget11DFlowLayout10metaObjectEv@Base 2.0.11
 _ZNK3Dtk6Widget11DFlowLayout11minimumSizeEv@Base 2.0.11
 _ZNK3Dtk6Widget11DFlowLayout14heightForWidthEi@Base 2.0.11
 _ZNK3Dtk6Widget11DFlowLayout15sizeHintChangedE5QSize@Base 2.0.11
 _ZNK3Dtk6Widget11DFlowLayout15verticalSpacingEv@Base 2.0.11
 _ZNK3Dtk6Widget11DFlowLayout17hasHeightForWidthEv@Base 2.0.11
 _ZNK3Dtk6Widget11DFlowLayout17horizontalSpacingEv@Base 2.0.11
 _ZNK3Dtk6Widget11DFlowLayout19expandingDirectionsEv@Base 2.0.11
 _ZNK3Dtk6Widget11DFlowLayout4flowEv@Base 2.0.11
 _ZNK3Dtk6Widget11DFlowLayout5countEv@Base 2.0.11
 _ZNK3Dtk6Widget11DFlowLayout6itemAtEi@Base 2.0.11
 _ZNK3Dtk6Widget11DFlowLayout8sizeHintEv@Base 2.0.11
 _ZNK3Dtk6Widget11DHBoxWidget10metaObjectEv@Base 2.0.11
 _ZNK3Dtk6Widget11DHeaderLine10metaObjectEv@Base 2.0.11
 _ZNK3Dtk6Widget11DHeaderLine5titleEv@Base 2.0.11
 _ZNK3Dtk6Widget11DIconButton10metaObjectEv@Base 2.0.11
 _ZNK3Dtk6Widget11DLinkButton10metaObjectEv@Base 2.0.11
 _ZNK3Dtk6Widget11DListWidget10metaObjectEv@Base 2.0.11
 _ZNK3Dtk6Widget11DListWidget10toggleableEv@Base 2.0.11
 _ZNK3Dtk6Widget11DListWidget10widgetListEv@Base 2.0.11
 _ZNK3Dtk6Widget11DListWidget11checkedListEv@Base 2.0.11
 _ZNK3Dtk6Widget11DListWidget12contentsRectEv@Base 2.0.11
 _ZNK3Dtk6Widget11DListWidget12firstCheckedEv@Base 2.0.11
 _ZNK3Dtk6Widget11DListWidget12visibleCountEv@Base 2.0.11
 _ZNK3Dtk6Widget11DListWidget15contentsMarginsEv@Base 2.0.11
 _ZNK3Dtk6Widget11DListWidget18getContentsMarginsEPiS2_S2_S2_@Base 2.0.11
 _ZNK3Dtk6Widget11DListWidget20enableVerticalScrollEv@Base 2.0.11
 _ZNK3Dtk6Widget11DListWidget22enableHorizontalScrollEv@Base 2.0.11
 _ZNK3Dtk6Widget11DListWidget5countEv@Base 2.0.11
 _ZNK3Dtk6Widget11DListWidget7spacingEv@Base 2.0.11
 _ZNK3Dtk6Widget11DListWidget8itemSizeEv@Base 2.0.11
 _ZNK3Dtk6Widget11DListWidget8sizeHintEv@Base 2.0.11
 _ZNK3Dtk6Widget11DListWidget9checkModeEv@Base 2.0.11
 _ZNK3Dtk6Widget11DListWidget9checkableEv@Base 2.0.11
 _ZNK3Dtk6Widget11DListWidget9directionEv@Base 2.0.11
 _ZNK3Dtk6Widget11DListWidget9getWidgetEi@Base 2.0.11
 _ZNK3Dtk6Widget11DListWidget9isCheckedEi@Base 2.0.11
 _ZNK3Dtk6Widget11DMainWindow10metaObjectEv@Base 2.0.11
 _ZNK3Dtk6Widget11DMainWindow11borderColorEv@Base 2.0.11
 _ZNK3Dtk6Widget11DMainWindow11borderWidthEv@Base 2.0.11
 _ZNK3Dtk6Widget11DMainWindow11shadowColorEv@Base 2.0.11
 _ZNK3Dtk6Widget11DMainWindow12frameMarginsEv@Base 2.0.11
 _ZNK3Dtk6Widget11DMainWindow12isDXcbWindowEv@Base 2.0.11
 _ZNK3Dtk6Widget11DMainWindow12shadowOffsetEv@Base 2.0.11
 _ZNK3Dtk6Widget11DMainWindow12shadowRadiusEv@Base 2.0.11
 _ZNK3Dtk6Widget11DMainWindow12windowRadiusEv@Base 2.0.11
 _ZNK3Dtk6Widget11DMainWindow16enableBlurWindowEv@Base 2.0.11
 _ZNK3Dtk6Widget11DMainWindow16enableSystemMoveEv@Base 2.0.11
 _ZNK3Dtk6Widget11DMainWindow18enableSystemResizeEv@Base 2.0.11
 _ZNK3Dtk6Widget11DMainWindow21translucentBackgroundEv@Base 2.0.11
 _ZNK3Dtk6Widget11DMainWindow23autoInputMaskByClipPathEv@Base 2.0.11
 _ZNK3Dtk6Widget11DMainWindow8clipPathEv@Base 2.0.11
 _ZNK3Dtk6Widget11DMainWindow8titlebarEv@Base 2.0.11
 _ZNK3Dtk6Widget11DMainWindow9frameMaskEv@Base 2.0.11
 _ZNK3Dtk6Widget11DOptionList10metaObjectEv@Base 2.0.11
 _ZNK3Dtk6Widget11DPushButton10metaObjectEv@Base 2.0.11
 _ZNK3Dtk6Widget11DPushButton10normalIconEv@Base 2.0.11
 _ZNK3Dtk6Widget11DPushButton9hoverIconEv@Base 2.0.11
 _ZNK3Dtk6Widget11DPushButton9pressIconEv@Base 2.0.11
 _ZNK3Dtk6Widget11DScrollArea10metaObjectEv@Base 2.0.11
 _ZNK3Dtk6Widget11DScrollArea17autoHideScrollBarEv@Base 2.0.11
 _ZNK3Dtk6Widget11DSearchEdit10metaObjectEv@Base 2.0.11
 _ZNK3Dtk6Widget11DSearchEdit11getLineEditEv@Base 2.0.11
 _ZNK3Dtk6Widget11DSearchEdit15minimumSizeHintEv@Base 2.0.11
 _ZNK3Dtk6Widget11DSearchEdit4textEv@Base 2.0.11
 _ZNK3Dtk6Widget11DSearchEdit8sizeHintEv@Base 2.0.11
 _ZNK3Dtk6Widget11DTextButton10metaObjectEv@Base 2.0.11
 _ZNK3Dtk6Widget11DTickEffect10metaObjectEv@Base 2.0.11
 _ZNK3Dtk6Widget11DVBoxWidget10metaObjectEv@Base 2.0.11
 _ZNK3Dtk6Widget12DAboutDialog10metaObjectEv@Base 2.0.11
 _ZNK3Dtk6Widget12DAboutDialog11companyLogoEv@Base 2.0.11
 _ZNK3Dtk6Widget12DAboutDialog11descriptionEv@Base 2.0.11
 _ZNK3Dtk6Widget12DAboutDialog11productNameEv@Base 2.0.11
 _ZNK3Dtk6Widget12DAboutDialog11websiteLinkEv@Base 2.0.11
 _ZNK3Dtk6Widget12DAboutDialog11websiteNameEv@Base 2.0.11
 _ZNK3Dtk6Widget12DAboutDialog11windowTitleEv@Base 2.0.11
 _ZNK3Dtk6Widget12DAboutDialog19acknowledgementLinkEv@Base 2.0.11
 _ZNK3Dtk6Widget12DAboutDialog7licenseEv@Base 2.0.11
 _ZNK3Dtk6Widget12DAboutDialog7versionEv@Base 2.0.11
 _ZNK3Dtk6Widget12DAnchorsBase10leftMarginEv@Base 2.0.11
 _ZNK3Dtk6Widget12DAnchorsBase10metaObjectEv@Base 2.0.11
 _ZNK3Dtk6Widget12DAnchorsBase11errorStringEv@Base 2.0.11
 _ZNK3Dtk6Widget12DAnchorsBase11rightMarginEv@Base 2.0.11
 _ZNK3Dtk6Widget12DAnchorsBase12bottomMarginEv@Base 2.0.11
 _ZNK3Dtk6Widget12DAnchorsBase14enhancedWidgetEv@Base 2.0.11
 _ZNK3Dtk6Widget12DAnchorsBase14verticalCenterEv@Base 2.0.11
 _ZNK3Dtk6Widget12DAnchorsBase16horizontalCenterEv@Base 2.0.11
 _ZNK3Dtk6Widget12DAnchorsBase17alignWhenCenteredEv@Base 2.0.11
 _ZNK3Dtk6Widget12DAnchorsBase20verticalCenterOffsetEv@Base 2.0.11
 _ZNK3Dtk6Widget12DAnchorsBase22horizontalCenterOffsetEv@Base 2.0.11
 _ZNK3Dtk6Widget12DAnchorsBase3topEv@Base 2.0.11
 _ZNK3Dtk6Widget12DAnchorsBase4fillEv@Base 2.0.11
 _ZNK3Dtk6Widget12DAnchorsBase4leftEv@Base 2.0.11
 _ZNK3Dtk6Widget12DAnchorsBase5rightEv@Base 2.0.11
 _ZNK3Dtk6Widget12DAnchorsBase6bottomEv@Base 2.0.11
 _ZNK3Dtk6Widget12DAnchorsBase6targetEv@Base 2.0.11
 _ZNK3Dtk6Widget12DAnchorsBase7anchorsEv@Base 2.0.11
 _ZNK3Dtk6Widget12DAnchorsBase7enabledEv@Base 2.0.11
 _ZNK3Dtk6Widget12DAnchorsBase7marginsEv@Base 2.0.11
 _ZNK3Dtk6Widget12DAnchorsBase8centerInEv@Base 2.0.11
 _ZNK3Dtk6Widget12DAnchorsBase9errorCodeEv@Base 2.0.11
 _ZNK3Dtk6Widget12DAnchorsBase9isBindingEPKNS0_11DAnchorInfoE@Base 2.0.11
 _ZNK3Dtk6Widget12DAnchorsBase9topMarginEv@Base 2.0.11
 _ZNK3Dtk6Widget12DApplication10metaObjectEv@Base 2.0.11
 _ZNK3Dtk6Widget12DApplication11productIconEv@Base 2.0.11
 _ZNK3Dtk6Widget12DApplication11productNameEv@Base 2.0.11
 _ZNK3Dtk6Widget12DApplication15visibleMenuIconEv@Base 2.0.11
 _ZNK3Dtk6Widget12DApplication18applicationLicenseEv@Base 2.0.11
 _ZNK3Dtk6Widget12DApplication19applicationHomePageEv@Base 2.0.11
 _ZNK3Dtk6Widget12DApplication22applicationDescriptionEv@Base 2.0.11
 _ZNK3Dtk6Widget12DApplication23visibleMenuShortcutTextEv@Base 2.0.11
 _ZNK3Dtk6Widget12DApplication25visibleMenuCheckboxWidgetEv@Base 2.0.11
 _ZNK3Dtk6Widget12DApplication30applicationAcknowledgementPageEv@Base 2.0.11
 _ZNK3Dtk6Widget12DApplication33applicationAcknowledgementVisibleEv@Base 2.0.11
 _ZNK3Dtk6Widget12DApplication5themeEv@Base 2.0.11
 _ZNK3Dtk6Widget12DArrowButton10metaObjectEv@Base 2.0.11
 _ZNK3Dtk6Widget12DArrowButton11buttonStateEv@Base 2.0.11
 _ZNK3Dtk6Widget12DArrowButton14arrowDirectionEv@Base 2.0.11
 _ZNK3Dtk6Widget12DExpandGroup10metaObjectEv@Base 2.0.11
 _ZNK3Dtk6Widget12DExpandGroup13checkedExpandEv@Base 2.0.11
 _ZNK3Dtk6Widget12DExpandGroup2idEPNS0_11DBaseExpandE@Base 2.0.11
 _ZNK3Dtk6Widget12DExpandGroup6expandEi@Base 2.0.11
 _ZNK3Dtk6Widget12DExpandGroup7expandsEv@Base 2.0.11
 _ZNK3Dtk6Widget12DExpandGroup9checkedIdEv@Base 2.0.11
 _ZNK3Dtk6Widget12DImageButton10metaObjectEv@Base 2.0.11
 _ZNK3Dtk6Widget12DImageButton11getHoverPicEv@Base 2.0.11
 _ZNK3Dtk6Widget12DImageButton11getPressPicEv@Base 2.0.11
 _ZNK3Dtk6Widget12DImageButton11isCheckableEv@Base 2.0.11
 _ZNK3Dtk6Widget12DImageButton12getNormalPicEv@Base 2.0.11
 _ZNK3Dtk6Widget12DImageButton13getCheckedPicEv@Base 2.0.11
 _ZNK3Dtk6Widget12DImageButton14getDisabledPicEv@Base 2.0.11
 _ZNK3Dtk6Widget12DImageButton8getStateEv@Base 2.0.11
 _ZNK3Dtk6Widget12DImageButton9isCheckedEv@Base 2.0.11
 _ZNK3Dtk6Widget12DInputDialog10intMaximumEv@Base 2.0.11
 _ZNK3Dtk6Widget12DInputDialog10intMinimumEv@Base 2.0.11
 _ZNK3Dtk6Widget12DInputDialog10metaObjectEv@Base 2.0.11
 _ZNK3Dtk6Widget12DInputDialog11doubleValueEv@Base 2.0.11
 _ZNK3Dtk6Widget12DInputDialog11isTextAlertEv@Base 2.0.11
 _ZNK3Dtk6Widget12DInputDialog12okButtonTextEv@Base 2.0.11
 _ZNK3Dtk6Widget12DInputDialog12textEchoModeEv@Base 2.0.11
 _ZNK3Dtk6Widget12DInputDialog13comboBoxItemsEv@Base 2.0.11
 _ZNK3Dtk6Widget12DInputDialog13doubleMaximumEv@Base 2.0.11
 _ZNK3Dtk6Widget12DInputDialog13doubleMinimumEv@Base 2.0.11
 _ZNK3Dtk6Widget12DInputDialog14doubleDecimalsEv@Base 2.0.11
 _ZNK3Dtk6Widget12DInputDialog16cancelButtonTextEv@Base 2.0.11
 _ZNK3Dtk6Widget12DInputDialog17okButtonIsEnabledEv@Base 2.0.11
 _ZNK3Dtk6Widget12DInputDialog18isComboBoxEditableEv@Base 2.0.11
 _ZNK3Dtk6Widget12DInputDialog20comboBoxCurrentIndexEv@Base 2.0.11
 _ZNK3Dtk6Widget12DInputDialog7intStepEv@Base 2.0.11
 _ZNK3Dtk6Widget12DInputDialog8intValueEv@Base 2.0.11
 _ZNK3Dtk6Widget12DInputDialog9inputModeEv@Base 2.0.11
 _ZNK3Dtk6Widget12DInputDialog9textValueEv@Base 2.0.11
 _ZNK3Dtk6Widget12DStackWidget10metaObjectEv@Base 2.0.11
 _ZNK3Dtk6Widget12DStackWidget10transitionEv@Base 2.0.11
 _ZNK3Dtk6Widget12DStackWidget12currentIndexEv@Base 2.0.11
 _ZNK3Dtk6Widget12DStackWidget13animationTypeEv@Base 2.0.11
 _ZNK3Dtk6Widget12DStackWidget13currentWidgetEv@Base 2.0.11
 _ZNK3Dtk6Widget12DStackWidget16getWidgetByIndexEi@Base 2.0.11
 _ZNK3Dtk6Widget12DStackWidget17animationDurationEv@Base 2.0.11
 _ZNK3Dtk6Widget12DStackWidget4busyEv@Base 2.0.11
 _ZNK3Dtk6Widget12DStackWidget5depthEv@Base 2.0.11
 _ZNK3Dtk6Widget12DStackWidget7indexOfEP7QWidget@Base 2.0.11
 _ZNK3Dtk6Widget12DSvgRenderer11defaultSizeEv@Base 2.0.11
 _ZNK3Dtk6Widget12DSvgRenderer13elementExistsERK7QString@Base 2.0.11
 _ZNK3Dtk6Widget12DSvgRenderer15boundsOnElementERK7QString@Base 2.0.11
 _ZNK3Dtk6Widget12DSvgRenderer7isValidEv@Base 2.0.11
 _ZNK3Dtk6Widget12DSvgRenderer7toImageE5QSizeRK7QString@Base 2.0.11
 _ZNK3Dtk6Widget12DSvgRenderer7viewBoxEv@Base 2.0.11
 _ZNK3Dtk6Widget12DSvgRenderer8viewBoxFEv@Base 2.0.11
 _ZNK3Dtk6Widget12DVideoWidget10brightnessEv@Base 2.0.11
 _ZNK3Dtk6Widget12DVideoWidget10metaObjectEv@Base 2.0.11
 _ZNK3Dtk6Widget12DVideoWidget10saturationEv@Base 2.0.11
 _ZNK3Dtk6Widget12DVideoWidget12currentFrameEv@Base 2.0.11
 _ZNK3Dtk6Widget12DVideoWidget15aspectRatioModeEv@Base 2.0.11
 _ZNK3Dtk6Widget12DVideoWidget16mirroredVerticalEv@Base 2.0.11
 _ZNK3Dtk6Widget12DVideoWidget18mirroredHorizontalEv@Base 2.0.11
 _ZNK3Dtk6Widget12DVideoWidget21sourceVideoPixelRatioEv@Base 2.0.11
 _ZNK3Dtk6Widget12DVideoWidget3hueEv@Base 2.0.11
 _ZNK3Dtk6Widget12DVideoWidget5roundEv@Base 2.0.11
 _ZNK3Dtk6Widget12DVideoWidget5scaleEv@Base 2.0.11
 _ZNK3Dtk6Widget12DVideoWidget8contrastEv@Base 2.0.11
 _ZNK3Dtk6Widget12DialogButton10buttonTypeEv@Base 2.0.11
 _ZNK3Dtk6Widget12DialogButton10metaObjectEv@Base 2.0.11
 _ZNK3Dtk6Widget13ContentLoader10metaObjectEv@Base 2.0.11
 _ZNK3Dtk6Widget13DIpv4LineEdit10isReadOnlyEv@Base 2.0.11
 _ZNK3Dtk6Widget13DIpv4LineEdit10metaObjectEv@Base 2.0.11
 _ZNK3Dtk6Widget13DIpv4LineEdit11displayTextEv@Base 2.0.11
 _ZNK3Dtk6Widget13DIpv4LineEdit14cursorPositionEv@Base 2.0.11
 _ZNK3Dtk6Widget13DIpv4LineEdit18hasAcceptableInputEv@Base 2.0.11
 _ZNK3Dtk6Widget13DIpv4LineEdit9alignmentEv@Base 2.0.11
 _ZNK3Dtk6Widget13DMPRISControl10metaObjectEv@Base 2.0.11
 _ZNK3Dtk6Widget13DMPRISControl11mprisLostedEv@Base 2.0.11
 _ZNK3Dtk6Widget13DMPRISControl12mprisChangedEv@Base 2.0.11
 _ZNK3Dtk6Widget13DMPRISControl13mprisAcquiredEv@Base 2.0.11
 _ZNK3Dtk6Widget13DMPRISControl9isWorkingEv@Base 2.0.11
 _ZNK3Dtk6Widget13DPasswordEdit10isEchoModeEv@Base 2.0.11
 _ZNK3Dtk6Widget13DPasswordEdit10metaObjectEv@Base 2.0.11
 _ZNK3Dtk6Widget13DShortcutEdit10metaObjectEv@Base 2.0.11
 _ZNK3Dtk6Widget13DShortcutEdit11toInputModeEv@Base 2.0.11
 _ZNK3Dtk6Widget13DShortcutEdit13getKeyMappingEv@Base 2.0.11
 _ZNK3Dtk6Widget13DShortcutEdit14setNormalStateEv@Base 2.0.11
 _ZNK3Dtk6Widget13DShortcutEdit15setInValidStateEv@Base 2.0.11
 _ZNK3Dtk6Widget13DShortcutEdit24getBlockShortcutKeysListEv@Base 2.0.11
 _ZNK3Dtk6Widget13DShortcutEdit8sizeHintEv@Base 2.0.11
 _ZNK3Dtk6Widget13DSwitchButton10metaObjectEv@Base 2.0.11
 _ZNK3Dtk6Widget13DSwitchButton17enabledBackgroundEv@Base 2.0.11
 _ZNK3Dtk6Widget13DSwitchButton18disabledBackgroundEv@Base 2.0.11
 _ZNK3Dtk6Widget13DSwitchButton7checkedEv@Base 2.0.11
 _ZNK3Dtk6Widget13DSwitchButton8sizeHintEv@Base 2.0.11
 _ZNK3Dtk6Widget13DThemeManager10metaObjectEv@Base 2.0.11
 _ZNK3Dtk6Widget13DThemeManager15getQssForWidgetE7QStringPK7QWidget@Base 2.0.11
 _ZNK3Dtk6Widget13DThemeManager15getQssForWidgetE7QStringRKS2_@Base 2.0.11
 _ZNK3Dtk6Widget13DThemeManager15getQssForWidgetEPK7QWidget@Base 2.0.11
 _ZNK3Dtk6Widget13DThemeManager5themeEPK7QWidgetPPS2_@Base 2.0.11
 _ZNK3Dtk6Widget13DThemeManager5themeEv@Base 2.0.11
 _ZNK3Dtk6Widget13DTrashManager12trashIsEmptyEv@Base 2.0.11
 _ZNK3Dtk6Widget14DDialogPrivate11elideStringE7QStringRK12QFontMetricsi@Base 2.0.11
 _ZNK3Dtk6Widget14DDialogPrivate7trimTagE7QString@Base 2.0.11
 _ZNK3Dtk6Widget14DDialogPrivate8scanTagsE7QString@Base 2.0.11
 _ZNK3Dtk6Widget14DDialogPrivate9getScreenEv@Base 2.0.11
 _ZNK3Dtk6Widget14DDoubleSpinBox10metaObjectEv@Base 2.0.11
 _ZNK3Dtk6Widget14DDoubleSpinBox12defaultValueEv@Base 2.0.11
 _ZNK3Dtk6Widget14DDoubleSpinBox7isAlertEv@Base 2.0.11
 _ZNK3Dtk6Widget14DForeignWindow10metaObjectEv@Base 2.0.11
 _ZNK3Dtk6Widget14DForeignWindow3pidEv@Base 2.0.11
 _ZNK3Dtk6Widget14DForeignWindow7wmClassEv@Base 2.0.11
 _ZNK3Dtk6Widget14DOptionPrivate11checkedIconEv@Base 2.0.11
 _ZNK3Dtk6Widget14DOptionPrivate4nameEv@Base 2.0.11
 _ZNK3Dtk6Widget14DOptionPrivate5valueEv@Base 2.0.11
 _ZNK3Dtk6Widget14DOptionPrivate7checkedEv@Base 2.0.11
 _ZNK3Dtk6Widget14DPageIndicator10metaObjectEv@Base 2.0.11
 _ZNK3Dtk6Widget14DPageIndicator10pointColorEv@Base 2.0.11
 _ZNK3Dtk6Widget14DPageIndicator11pointRadiusEv@Base 2.0.11
 _ZNK3Dtk6Widget14DPageIndicator13pointDistanceEv@Base 2.0.11
 _ZNK3Dtk6Widget14DPageIndicator16currentPageIndexEv@Base 2.0.11
 _ZNK3Dtk6Widget14DPageIndicator19secondaryPointColorEv@Base 2.0.11
 _ZNK3Dtk6Widget14DPageIndicator20secondaryPointRadiusEv@Base 2.0.11
 _ZNK3Dtk6Widget14DPageIndicator9pageCountEv@Base 2.0.11
 _ZNK3Dtk6Widget14DRegionMonitor10cursorMoveERK6QPoint@Base 2.0.11
 _ZNK3Dtk6Widget14DRegionMonitor10keyReleaseERK7QString@Base 2.0.11
 _ZNK3Dtk6Widget14DRegionMonitor10metaObjectEv@Base 2.0.11
 _ZNK3Dtk6Widget14DRegionMonitor10registeredEv@Base 2.0.11
 _ZNK3Dtk6Widget14DRegionMonitor11buttonPressERK6QPointi@Base 2.0.11
 _ZNK3Dtk6Widget14DRegionMonitor13buttonReleaseERK6QPointi@Base 2.0.11
 _ZNK3Dtk6Widget14DRegionMonitor13watchedRegionEv@Base 2.0.11
 _ZNK3Dtk6Widget14DRegionMonitor14coordinateTypeEv@Base 2.0.11
 _ZNK3Dtk6Widget14DRegionMonitor21coordinateTypeChangedENS1_14CoordinateTypeE@Base 2.0.11
 _ZNK3Dtk6Widget14DRegionMonitor8keyPressERK7QString@Base 2.0.11
 _ZNK3Dtk6Widget14DSliderPrivate20pixelPosToRangeValueEi@Base 2.0.11
 _ZNK3Dtk6Widget14DSuggestButton10metaObjectEv@Base 2.0.11
 _ZNK3Dtk6Widget14DTabBarPrivate10metaObjectEv@Base 2.0.11
 _ZNK3Dtk6Widget14DTabBarPrivate11tabSizeHintEi@Base 2.0.11
 _ZNK3Dtk6Widget14DTabBarPrivate15initStyleOptionEP15QStyleOptionTabi@Base 2.0.11
 _ZNK3Dtk6Widget14DTabBarPrivate15minimumSizeHintEv@Base 2.0.11
 _ZNK3Dtk6Widget14DTabBarPrivate18minimumTabSizeHintEi@Base 2.0.11
 _ZNK3Dtk6Widget14DTabBarPrivate2ddEv@Base 2.0.11
 _ZNK3Dtk6Widget14DWaterProgress10metaObjectEv@Base 2.0.11
 _ZNK3Dtk6Widget14DWaterProgress5valueEv@Base 2.0.11
 _ZNK3Dtk6Widget15ArrowButtonIcon10metaObjectEv@Base 2.0.11
 _ZNK3Dtk6Widget15ArrowButtonIcon11buttonStateEv@Base 2.0.11
 _ZNK3Dtk6Widget15ArrowButtonIcon14arrowDirectionEv@Base 2.0.11
 _ZNK3Dtk6Widget15ArrowHeaderLine10metaObjectEv@Base 2.0.11
 _ZNK3Dtk6Widget15DAbstractDialog10metaObjectEv@Base 2.0.11
 _ZNK3Dtk6Widget15DAbstractDialog11borderColorEv@Base 2.0.11
 _ZNK3Dtk6Widget15DAbstractDialog15backgroundColorEv@Base 2.0.11
 _ZNK3Dtk6Widget15DAbstractDialog15displayPositionEv@Base 2.0.11
 _ZNK3Dtk6Widget15DArrowRectangle10arrowWidthEv@Base 2.0.11
 _ZNK3Dtk6Widget15DArrowRectangle10getContentEv@Base 2.0.11
 _ZNK3Dtk6Widget15DArrowRectangle10metaObjectEv@Base 2.0.11
 _ZNK3Dtk6Widget15DArrowRectangle11arrowHeightEv@Base 2.0.11
 _ZNK3Dtk6Widget15DArrowRectangle11borderColorEv@Base 2.0.11
 _ZNK3Dtk6Widget15DArrowRectangle11borderWidthEv@Base 2.0.11
 _ZNK3Dtk6Widget15DArrowRectangle13shadowXOffsetEv@Base 2.0.11
 _ZNK3Dtk6Widget15DArrowRectangle13shadowYOffsetEv@Base 2.0.11
 _ZNK3Dtk6Widget15DArrowRectangle14arrowDirectionEv@Base 2.0.11
 _ZNK3Dtk6Widget15DArrowRectangle15backgroundColorEv@Base 2.0.11
 _ZNK3Dtk6Widget15DArrowRectangle16shadowBlurRadiusEv@Base 2.0.11
 _ZNK3Dtk6Widget15DArrowRectangle16windowDeactivateEv@Base 2.0.11
 _ZNK3Dtk6Widget15DArrowRectangle6arrowXEv@Base 2.0.11
 _ZNK3Dtk6Widget15DArrowRectangle6arrowYEv@Base 2.0.11
 _ZNK3Dtk6Widget15DArrowRectangle6marginEv@Base 2.0.11
 _ZNK3Dtk6Widget15DArrowRectangle6radiusEv@Base 2.0.11
 _ZNK3Dtk6Widget15DCircleProgress10chunkColorEv@Base 2.0.11
 _ZNK3Dtk6Widget15DCircleProgress10metaObjectEv@Base 2.0.11
 _ZNK3Dtk6Widget15DCircleProgress12valueChangedEi@Base 2.0.11
 _ZNK3Dtk6Widget15DCircleProgress15backgroundColorEv@Base 2.0.11
 _ZNK3Dtk6Widget15DCircleProgress4textEv@Base 2.0.11
 _ZNK3Dtk6Widget15DCircleProgress5valueEv@Base 2.0.11
 _ZNK3Dtk6Widget15DCircleProgress9lineWidthEv@Base 2.0.11
 _ZNK3Dtk6Widget15DEnhancedWidget10metaObjectEv@Base 2.0.11
 _ZNK3Dtk6Widget15DEnhancedWidget6targetEv@Base 2.0.11
 _ZNK3Dtk6Widget15DEnhancedWidget7enabledEv@Base 2.0.11
 _ZNK3Dtk6Widget15DSettingsDialog10metaObjectEv@Base 2.0.11
 _ZNK3Dtk6Widget15DSettingsDialog13widgetFactoryEv@Base 2.0.11
 _ZNK3Dtk6Widget15DSimpleListItem10metaObjectEv@Base 2.0.11
 _ZNK3Dtk6Widget15DSimpleListView10metaObjectEv@Base 2.0.11
 _ZNK3Dtk6Widget15FilterMouseMove10metaObjectEv@Base 2.0.11
 _ZNK3Dtk6Widget16DArrowLineExpand10metaObjectEv@Base 2.0.11
 _ZNK3Dtk6Widget16DCrumbTextFormat10backgroundEv@Base 2.0.11
 _ZNK3Dtk6Widget16DCrumbTextFormat16backgroundRadiusEv@Base 2.0.11
 _ZNK3Dtk6Widget16DCrumbTextFormat4textEv@Base 2.0.11
 _ZNK3Dtk6Widget16DCrumbTextFormat8tagColorEv@Base 2.0.11
 _ZNK3Dtk6Widget16DCrumbTextFormat9textColorEv@Base 2.0.11
 _ZNK3Dtk6Widget16DFileChooserEdit10metaObjectEv@Base 2.0.11
 _ZNK3Dtk6Widget16DFileChooserEdit11nameFiltersEv@Base 2.0.11
 _ZNK3Dtk6Widget16DFileChooserEdit21dialogDisplayPositionEv@Base 2.0.11
 _ZNK3Dtk6Widget16DFileChooserEdit8fileModeEv@Base 2.0.11
 _ZNK3Dtk6Widget16DKeyboardMonitor10metaObjectEv@Base 2.0.11
 _ZNK3Dtk6Widget16DWindowMaxButton10metaObjectEv@Base 2.0.11
 _ZNK3Dtk6Widget16DWindowMaxButton11isMaximizedEv@Base 2.0.11
 _ZNK3Dtk6Widget16DWindowMinButton10metaObjectEv@Base 2.0.11
 _ZNK3Dtk6Widget16VideoFormatProxy10metaObjectEv@Base 2.0.11
 _ZNK3Dtk6Widget16VideoFormatProxy12currentFrameEv@Base 2.0.11
 _ZNK3Dtk6Widget16VideoFormatProxy17isFormatSupportedERK19QVideoSurfaceFormat@Base 2.0.11
 _ZNK3Dtk6Widget16VideoFormatProxy21supportedPixelFormatsEN20QAbstractVideoBuffer10HandleTypeE@Base 2.0.11
 _ZNK3Dtk6Widget17DBlurEffectWidget10metaObjectEv@Base 2.0.11
 _ZNK3Dtk6Widget17DBlurEffectWidget15blurRectXRadiusEv@Base 2.0.11
 _ZNK3Dtk6Widget17DBlurEffectWidget15blurRectYRadiusEv@Base 2.0.11
 _ZNK3Dtk6Widget17DBlurEffectWidget4modeEv@Base 2.0.11
 _ZNK3Dtk6Widget17DBlurEffectWidget6radiusEv@Base 2.0.11
 _ZNK3Dtk6Widget17DBlurEffectWidget9blendModeEv@Base 2.0.11
 _ZNK3Dtk6Widget17DBlurEffectWidget9maskAlphaEv@Base 2.0.11
 _ZNK3Dtk6Widget17DBlurEffectWidget9maskColorEv@Base 2.0.11
 _ZNK3Dtk6Widget17DBorderlessWidget10metaObjectEv@Base 2.0.11
 _ZNK3Dtk6Widget17DBorderlessWidget11shadowColorEv@Base 2.0.11
 _ZNK3Dtk6Widget17DBorderlessWidget11shadowWidthEv@Base 2.0.11
 _ZNK3Dtk6Widget17DBorderlessWidget12childrenRectEv@Base 2.0.11
 _ZNK3Dtk6Widget17DBorderlessWidget12shadowOffsetEv@Base 2.0.11
 _ZNK3Dtk6Widget17DBorderlessWidget12titleBarMenuEv@Base 2.0.11
 _ZNK3Dtk6Widget17DBorderlessWidget13frameGeometryEv@Base 2.0.11
 _ZNK3Dtk6Widget17DBorderlessWidget14childrenRegionEv@Base 2.0.11
 _ZNK3Dtk6Widget17DBorderlessWidget14normalGeometryEv@Base 2.0.11
 _ZNK3Dtk6Widget17DBorderlessWidget14titlebarHeightEv@Base 2.0.11
 _ZNK3Dtk6Widget17DBorderlessWidget15backgroundColorEv@Base 2.0.11
 _ZNK3Dtk6Widget17DBorderlessWidget15backgroundImageEv@Base 2.0.11
 _ZNK3Dtk6Widget17DBorderlessWidget15contentsMarginsEv@Base 2.0.11
 _ZNK3Dtk6Widget17DBorderlessWidget18getContentsMarginsEPiS2_S2_S2_@Base 2.0.11
 _ZNK3Dtk6Widget17DBorderlessWidget1xEv@Base 2.0.11
 _ZNK3Dtk6Widget17DBorderlessWidget1yEv@Base 2.0.11
 _ZNK3Dtk6Widget17DBorderlessWidget3posEv@Base 2.0.11
 _ZNK3Dtk6Widget17DBorderlessWidget4sizeEv@Base 2.0.11
 _ZNK3Dtk6Widget17DBorderlessWidget5widthEv@Base 2.0.11
 _ZNK3Dtk6Widget17DBorderlessWidget6borderEv@Base 2.0.11
 _ZNK3Dtk6Widget17DBorderlessWidget6heightEv@Base 2.0.11
 _ZNK3Dtk6Widget17DBorderlessWidget6layoutEv@Base 2.0.11
 _ZNK3Dtk6Widget17DBorderlessWidget6radiusEv@Base 2.0.11
 _ZNK3Dtk6Widget17DBorderlessWidget8geometryEv@Base 2.0.11
 _ZNK3Dtk6Widget17DBorderlessWidget8titlebarEv@Base 2.0.11
 _ZNK3Dtk6Widget17DBorderlessWidget9frameSizeEv@Base 2.0.11
 _ZNK3Dtk6Widget17DBorderlessWindow10metaObjectEv@Base 2.0.11
 _ZNK3Dtk6Widget17DBorderlessWindow12parentWidgetEv@Base 2.0.11
 _ZNK3Dtk6Widget17DClipEffectWidget10metaObjectEv@Base 2.0.11
 _ZNK3Dtk6Widget17DClipEffectWidget7marginsEv@Base 2.0.11
 _ZNK3Dtk6Widget17DClipEffectWidget8clipPathEv@Base 2.0.11
 _ZNK3Dtk6Widget17DFileIconProvider4iconERK9QFileInfo@Base 2.0.11
 _ZNK3Dtk6Widget17DFileIconProvider4iconERK9QFileInfoRK5QIcon@Base 2.0.11
 _ZNK3Dtk6Widget17DLoadingIndicator10metaObjectEv@Base 2.0.11
 _ZNK3Dtk6Widget17DLoadingIndicator11aniDurationEv@Base 2.0.11
 _ZNK3Dtk6Widget17DLoadingIndicator11imageSourceEv@Base 2.0.11
 _ZNK3Dtk6Widget17DLoadingIndicator12widgetSourceEv@Base 2.0.11
 _ZNK3Dtk6Widget17DLoadingIndicator13aniEasingTypeEv@Base 2.0.11
 _ZNK3Dtk6Widget17DLoadingIndicator15backgroundColorEv@Base 2.0.11
 _ZNK3Dtk6Widget17DLoadingIndicator6rotateEv@Base 2.0.11
 _ZNK3Dtk6Widget17DLoadingIndicator6smoothEv@Base 2.0.11
 _ZNK3Dtk6Widget17DLoadingIndicator7loadingEv@Base 2.0.11
 _ZNK3Dtk6Widget17DLoadingIndicator8sizeHintEv@Base 2.0.11
 _ZNK3Dtk6Widget17DLoadingIndicator9directionEv@Base 2.0.11
 _ZNK3Dtk6Widget17DSegmentedControl10metaObjectEv@Base 2.0.11
 _ZNK3Dtk6Widget17DSegmentedControl12currentIndexEv@Base 2.0.11
 _ZNK3Dtk6Widget17DSegmentedControl12indexByTitleERK7QString@Base 2.0.11
 _ZNK3Dtk6Widget17DSegmentedControl13animationTypeEv@Base 2.0.11
 _ZNK3Dtk6Widget17DSegmentedControl17animationDurationEv@Base 2.0.11
 _ZNK3Dtk6Widget17DSegmentedControl2atEi@Base 2.0.11
 _ZNK3Dtk6Widget17DSegmentedControl5countEv@Base 2.0.11
 _ZNK3Dtk6Widget17DSegmentedControl7getIconEi@Base 2.0.11
 _ZNK3Dtk6Widget17DSegmentedControl7getTextEi@Base 2.0.11
 _ZNK3Dtk6Widget17DSegmentedControl9highlightEv@Base 2.0.11
 _ZNK3Dtk6Widget17DSwitchHeaderLine10metaObjectEv@Base 2.0.11
 _ZNK3Dtk6Widget17DSwitchLineExpand10metaObjectEv@Base 2.0.11
 _ZNK3Dtk6Widget17DVariantListModel4dataERK11QModelIndexi@Base 2.0.11
 _ZNK3Dtk6Widget17DVariantListModel8rowCountERK11QModelIndex@Base 2.0.11
 _ZNK3Dtk6Widget18DFlowLayoutPrivate8doLayoutERK5QRectb@Base 2.0.11
 _ZNK3Dtk6Widget18DSeparatorVertical10metaObjectEv@Base 2.0.11
 _ZNK3Dtk6Widget18DShortcutEditLabel10metaObjectEv@Base 2.0.11
 _ZNK3Dtk6Widget18DThumbnailProvider10metaObjectEv@Base 2.0.11
 _ZNK3Dtk6Widget18DThumbnailProvider11errorStringEv@Base 2.0.11
 _ZNK3Dtk6Widget18DThumbnailProvider12hasThumbnailERK9QFileInfo@Base 2.0.11
 _ZNK3Dtk6Widget18DThumbnailProvider12hasThumbnailERK9QMimeType@Base 2.0.11
 _ZNK3Dtk6Widget18DThumbnailProvider16defaultSizeLimitEv@Base 2.0.11
 _ZNK3Dtk6Widget18DThumbnailProvider16thumbnailChangedERK7QStringS4_@Base 2.0.11
 _ZNK3Dtk6Widget18DThumbnailProvider17thumbnailFilePathERK9QFileInfoNS1_4SizeE@Base 2.0.11
 _ZNK3Dtk6Widget18DThumbnailProvider21createThumbnailFailedERK7QString@Base 2.0.11
 _ZNK3Dtk6Widget18DThumbnailProvider23createThumbnailFinishedERK7QStringS4_@Base 2.0.11
 _ZNK3Dtk6Widget18DThumbnailProvider9sizeLimitERK9QMimeType@Base 2.0.11
 _ZNK3Dtk6Widget18DWindowCloseButton10metaObjectEv@Base 2.0.11
 _ZNK3Dtk6Widget18DWindowGroupLeader13groupLeaderIdEv@Base 2.0.11
 _ZNK3Dtk6Widget18DWindowGroupLeader14clientLeaderIdEv@Base 2.0.11
 _ZNK3Dtk6Widget19DApplicationPrivate5themeEv@Base 2.0.11
 _ZNK3Dtk6Widget19DGraphicsClipEffect10metaObjectEv@Base 2.0.11
 _ZNK3Dtk6Widget19DGraphicsClipEffect7marginsEv@Base 2.0.11
 _ZNK3Dtk6Widget19DGraphicsClipEffect8clipPathEv@Base 2.0.11
 _ZNK3Dtk6Widget19DGraphicsGlowEffect10metaObjectEv@Base 2.0.11
 _ZNK3Dtk6Widget19DGraphicsGlowEffect15boundingRectForERK6QRectF@Base 2.0.11
 _ZNK3Dtk6Widget19DPasswdEditAnimated10metaObjectEv@Base 2.0.11
 _ZNK3Dtk6Widget19DSegmentedHighlight10metaObjectEv@Base 2.0.11
 _ZNK3Dtk6Widget19DSvgRendererPrivate8getImageERK5QSizeRK7QString@Base 2.0.11
 _ZNK3Dtk6Widget19DWindowOptionButton10metaObjectEv@Base 2.0.11
 _ZNK3Dtk6Widget20CrumbObjectInterface10metaObjectEv@Base 2.0.11
 _ZNK3Dtk6Widget20DPictureSequenceView10metaObjectEv@Base 2.0.11
 _ZNK3Dtk6Widget20DPictureSequenceView10singleShotEv@Base 2.0.11
 _ZNK3Dtk6Widget20DPictureSequenceView12speedChangedEi@Base 2.0.11
 _ZNK3Dtk6Widget20DPictureSequenceView5speedEv@Base 2.0.11
 _ZNK3Dtk6Widget20DPictureSequenceView7playEndEv@Base 2.0.11
 _ZNK3Dtk6Widget20DSeparatorHorizontal10metaObjectEv@Base 2.0.11
 _ZNK3Dtk6Widget20DThemeManagerPrivate13getQssContentERK7QString@Base 2.0.11
 _ZNK3Dtk6Widget20DWindowManagerHelper10metaObjectEv@Base 2.0.11
 _ZNK3Dtk6Widget20DWindowManagerHelper12hasCompositeEv@Base 2.0.11
 _ZNK3Dtk6Widget20DWindowManagerHelper13hasBlurWindowEv@Base 2.0.11
 _ZNK3Dtk6Widget20DWindowManagerHelper15allWindowIdListEv@Base 2.0.11
 _ZNK3Dtk6Widget20DWindowManagerHelper17windowManagerNameEv@Base 2.0.11
 _ZNK3Dtk6Widget20DWindowManagerHelper23currentWorkspaceWindowsEv@Base 2.0.11
 _ZNK3Dtk6Widget20DWindowManagerHelper23windowManagerNameStringEv@Base 2.0.11
 _ZNK3Dtk6Widget20DWindowManagerHelper28currentWorkspaceWindowIdListEv@Base 2.0.11
 _ZNK3Dtk6Widget21DPlatformWindowHandle10metaObjectEv@Base 2.0.11
 _ZNK3Dtk6Widget21DPlatformWindowHandle11borderColorEv@Base 2.0.11
 _ZNK3Dtk6Widget21DPlatformWindowHandle11borderWidthEv@Base 2.0.11
 _ZNK3Dtk6Widget21DPlatformWindowHandle11shadowColorEv@Base 2.0.11
 _ZNK3Dtk6Widget21DPlatformWindowHandle12frameMarginsEv@Base 2.0.11
 _ZNK3Dtk6Widget21DPlatformWindowHandle12realWindowIdEv@Base 2.0.11
 _ZNK3Dtk6Widget21DPlatformWindowHandle12shadowOffsetEv@Base 2.0.11
 _ZNK3Dtk6Widget21DPlatformWindowHandle12shadowRadiusEv@Base 2.0.11
 _ZNK3Dtk6Widget21DPlatformWindowHandle12windowRadiusEv@Base 2.0.11
 _ZNK3Dtk6Widget21DPlatformWindowHandle16enableBlurWindowEv@Base 2.0.11
 _ZNK3Dtk6Widget21DPlatformWindowHandle16enableSystemMoveEv@Base 2.0.11
 _ZNK3Dtk6Widget21DPlatformWindowHandle18enableSystemResizeEv@Base 2.0.11
 _ZNK3Dtk6Widget21DPlatformWindowHandle21translucentBackgroundEv@Base 2.0.11
 _ZNK3Dtk6Widget21DPlatformWindowHandle23autoInputMaskByClipPathEv@Base 2.0.11
 _ZNK3Dtk6Widget21DPlatformWindowHandle8clipPathEv@Base 2.0.11
 _ZNK3Dtk6Widget21DPlatformWindowHandle9frameMaskEv@Base 2.0.11
 _ZNK3Dtk6Widget21DRegionMonitorPrivate22deviceScaledCoordinateERK6QPointd@Base 2.0.11
 _ZNK3Dtk6Widget22DAbstractDialogPrivate17getParentGeometryEv@Base 2.0.11
 _ZNK3Dtk6Widget22DSettingsWidgetFactory10metaObjectEv@Base 2.0.11
 _ZNK3Dtk6Widget24DBlurEffectWidgetPrivate23isBehindWindowBlendModeEv@Base 2.0.11
 _ZNK3Dtk6Widget24DBorderlessWidgetPrivate10externSizeERK5QSize@Base 2.0.11
 _ZNK3Dtk6Widget24DBorderlessWidgetPrivate11externWidthEv@Base 2.0.11
 _ZNK3Dtk6Widget24DBorderlessWidgetPrivate13externMarginsEv@Base 2.0.11
 _ZNK3Dtk6Widget24DBorderlessWidgetPrivate25_q_onTitleBarMousePressedE6QFlagsIN2Qt11MouseButtonEE@Base 2.0.11
 _ZNK3Dtk6Widget24DFileIconProviderPrivate17getFilesystemIconERK9QFileInfo@Base 2.0.11
 _ZNK3Dtk6Widget24DFileIconProviderPrivate9fromThemeE7QString@Base 2.0.11
 _ZNK3Dtk6Widget25DThumbnailProviderPrivate14sizeToFilePathENS0_18DThumbnailProvider4SizeE@Base 2.0.11
 _ZNK3Dtk6Widget27DSlideStackWidgetTransition10metaObjectEv@Base 2.0.11
 _ZNK3Dtk6Widget30DAbstractStackWidgetTransition4infoEv@Base 2.0.11
 _ZNK3Dtk6Widget30DAbstractStackWidgetTransition9animationEv@Base 2.0.11
 _ZNK3Dtk6Widget6DLabel10metaObjectEv@Base 2.0.11
 _ZNK3Dtk6Widget6DToast10metaObjectEv@Base 2.0.11
 _ZNK3Dtk6Widget6DToast4iconEv@Base 2.0.11
 _ZNK3Dtk6Widget6DToast4textEv@Base 2.0.11
 _ZNK3Dtk6Widget6DToast7opacityEv@Base 2.0.11
 _ZNK3Dtk6Widget6DToast8durationEv@Base 2.0.11
 _ZNK3Dtk6Widget7Content10metaObjectEv@Base 2.0.11
 _ZNK3Dtk6Widget7Content13widgetFactoryEv@Base 2.0.11
 _ZNK3Dtk6Widget7DDialog10getButtonsEv@Base 2.0.11
 _ZNK3Dtk6Widget7DDialog10getContentEi@Base 2.0.11
 _ZNK3Dtk6Widget7DDialog10iconPixmapEv@Base 2.0.11
 _ZNK3Dtk6Widget7DDialog10metaObjectEv@Base 2.0.11
 _ZNK3Dtk6Widget7DDialog10textFormatEv@Base 2.0.11
 _ZNK3Dtk6Widget7DDialog11buttonCountEv@Base 2.0.11
 _ZNK3Dtk6Widget7DDialog11getContentsEv@Base 2.0.11
 _ZNK3Dtk6Widget7DDialog12contentCountEv@Base 2.0.11
 _ZNK3Dtk6Widget7DDialog20getButtonIndexByTextERK7QString@Base 2.0.11
 _ZNK3Dtk6Widget7DDialog20onButtonClickedCloseEv@Base 2.0.11
 _ZNK3Dtk6Widget7DDialog28contentLayoutContentsMarginsEv@Base 2.0.11
 _ZNK3Dtk6Widget7DDialog4iconEv@Base 2.0.11
 _ZNK3Dtk6Widget7DDialog5titleEv@Base 2.0.11
 _ZNK3Dtk6Widget7DDialog7messageEv@Base 2.0.11
 _ZNK3Dtk6Widget7DDialog9getButtonEi@Base 2.0.11
 _ZNK3Dtk6Widget7DOption10metaObjectEv@Base 2.0.11
 _ZNK3Dtk6Widget7DOption11checkedIconEv@Base 2.0.11
 _ZNK3Dtk6Widget7DOption11sizeChangedERK5QSize@Base 2.0.11
 _ZNK3Dtk6Widget7DOption14checkedChangedEb@Base 2.0.11
 _ZNK3Dtk6Widget7DOption18checkedIconChangedE7QString@Base 2.0.11
 _ZNK3Dtk6Widget7DOption4nameEv@Base 2.0.11
 _ZNK3Dtk6Widget7DOption5valueEv@Base 2.0.11
 _ZNK3Dtk6Widget7DOption7checkedEv@Base 2.0.11
 _ZNK3Dtk6Widget7DSlider10handleTypeEv@Base 2.0.11
 _ZNK3Dtk6Widget7DSlider10metaObjectEv@Base 2.0.11
 _ZNK3Dtk6Widget7DSlider10scaleColorEv@Base 2.0.11
 _ZNK3Dtk6Widget7DSlider14hoverShowValueEv@Base 2.0.11
 _ZNK3Dtk6Widget7DSlider15hoverValueColorEv@Base 2.0.11
 _ZNK3Dtk6Widget7DSlider22hoverShowValueIntervalEv@Base 2.0.11
 _ZNK3Dtk6Widget7DSlider7leftTipEv@Base 2.0.11
 _ZNK3Dtk6Widget7DSlider8rightTipEv@Base 2.0.11
 _ZNK3Dtk6Widget7DSlider8sizeHintEv@Base 2.0.11
 _ZNK3Dtk6Widget7DSlider8tipColorEv@Base 2.0.11
 _ZNK3Dtk6Widget7DTabBar10flashColorEv@Base 2.0.11
 _ZNK3Dtk6Widget7DTabBar10isDragableEv@Base 2.0.11
 _ZNK3Dtk6Widget7DTabBar10metaObjectEv@Base 2.0.11
 _ZNK3Dtk6Widget7DTabBar10tabToolTipEi@Base 2.0.11
 _ZNK3Dtk6Widget7DTabBar11tabSizeHintEi@Base 2.0.11
 _ZNK3Dtk6Widget7DTabBar12currentIndexEv@Base 2.0.11
 _ZNK3Dtk6Widget7DTabBar12documentModeEv@Base 2.0.11
 _ZNK3Dtk6Widget7DTabBar12isTabEnabledEi@Base 2.0.11
 _ZNK3Dtk6Widget7DTabBar12tabWhatsThisEi@Base 2.0.11
 _ZNK3Dtk6Widget7DTabBar12tabsClosableEv@Base 2.0.11
 _ZNK3Dtk6Widget7DTabBar14dragIconWindowEv@Base 2.0.11
 _ZNK3Dtk6Widget7DTabBar16visibleAddButtonEv@Base 2.0.11
 _ZNK3Dtk6Widget7DTabBar17startDragDistanceEv@Base 2.0.11
 _ZNK3Dtk6Widget7DTabBar17usesScrollButtonsEv@Base 2.0.11
 _ZNK3Dtk6Widget7DTabBar18maximumTabSizeHintEi@Base 2.0.11
 _ZNK3Dtk6Widget7DTabBar18minimumTabSizeHintEi@Base 2.0.11
 _ZNK3Dtk6Widget7DTabBar19changeCurrentOnDragEv@Base 2.0.11
 _ZNK3Dtk6Widget7DTabBar21canInsertFromMimeDataEiPK9QMimeData@Base 2.0.11
 _ZNK3Dtk6Widget7DTabBar21createMimeDataFromTabEiRK15QStyleOptionTab@Base 2.0.11
 _ZNK3Dtk6Widget7DTabBar23createDragPixmapFromTabEiRK15QStyleOptionTabP6QPoint@Base 2.0.11
 _ZNK3Dtk6Widget7DTabBar25selectionBehaviorOnRemoveEv@Base 2.0.11
 _ZNK3Dtk6Widget7DTabBar5countEv@Base 2.0.11
 _ZNK3Dtk6Widget7DTabBar5shapeEv@Base 2.0.11
 _ZNK3Dtk6Widget7DTabBar5tabAtERK6QPoint@Base 2.0.11
 _ZNK3Dtk6Widget7DTabBar6d_funcEv@Base 2.0.11
 _ZNK3Dtk6Widget7DTabBar7tabDataEi@Base 2.0.11
 _ZNK3Dtk6Widget7DTabBar7tabIconEi@Base 2.0.11
 _ZNK3Dtk6Widget7DTabBar7tabRectEi@Base 2.0.11
 _ZNK3Dtk6Widget7DTabBar7tabTextEi@Base 2.0.11
 _ZNK3Dtk6Widget7DTabBar8autoHideEv@Base 2.0.11
 _ZNK3Dtk6Widget7DTabBar8drawBaseEv@Base 2.0.11
 _ZNK3Dtk6Widget7DTabBar8iconSizeEv@Base 2.0.11
 _ZNK3Dtk6Widget7DTabBar8paintTabEP8QPainteriRK15QStyleOptionTab@Base 2.0.11
 _ZNK3Dtk6Widget7DTabBar9elideModeEv@Base 2.0.11
 _ZNK3Dtk6Widget7DTabBar9expandingEv@Base 2.0.11
 _ZNK3Dtk6Widget7DTabBar9isMovableEv@Base 2.0.11
 _ZNK3Dtk6Widget7DTabBar9maskColorEv@Base 2.0.11
 _ZNK3Dtk6Widget7DTabBar9tabButtonEiN7QTabBar14ButtonPositionE@Base 2.0.11
 _ZNK3Dtk6Widget8DSpinBox10metaObjectEv@Base 2.0.11
 _ZNK3Dtk6Widget8DSpinBox12defaultValueEv@Base 2.0.11
 _ZNK3Dtk6Widget8DSpinBox7isAlertEv@Base 2.0.11
 _ZNK3Dtk6Widget8DSpinBox8lineEditEv@Base 2.0.11
 _ZNK3Dtk6Widget8DSpinner10metaObjectEv@Base 2.0.11
 _ZNK3Dtk6Widget8DSpinner9isPlayingEv@Base 2.0.11
 _ZNK3Dtk6Widget9DBaseLine10leftMarginEv@Base 2.0.11
 _ZNK3Dtk6Widget9DBaseLine10metaObjectEv@Base 2.0.11
 _ZNK3Dtk6Widget9DBaseLine11rightMarginEv@Base 2.0.11
 _ZNK3Dtk6Widget9DLineEdit10metaObjectEv@Base 2.0.11
 _ZNK3Dtk6Widget9DLineEdit10normalIconEv@Base 2.0.11
 _ZNK3Dtk6Widget9DLineEdit11iconClickedEv@Base 2.0.11
 _ZNK3Dtk6Widget9DLineEdit11iconVisibleEv@Base 2.0.11
 _ZNK3Dtk6Widget9DLineEdit11sizeChangedERK5QSize@Base 2.0.11
 _ZNK3Dtk6Widget9DLineEdit12alertChangedEb@Base 2.0.11
 _ZNK3Dtk6Widget9DLineEdit12focusChangedEb@Base 2.0.11
 _ZNK3Dtk6Widget9DLineEdit7isAlertEv@Base 2.0.11
 _ZNK3Dtk6Widget9DLineEdit9hoverIconEv@Base 2.0.11
 _ZNK3Dtk6Widget9DLineEdit9pressIconEv@Base 2.0.11
 _ZNK3Dtk6Widget9DListView10metaObjectEv@Base 2.0.11
 _ZNK3Dtk6Widget9DListView11orientationEv@Base 2.0.11
 _ZNK3Dtk6Widget9DListView12isActiveRectERK5QRect@Base 2.0.11
 _ZNK3Dtk6Widget9DListView12isVisualRectERK5QRect@Base 2.0.11
 _ZNK3Dtk6Widget9DListView15getFooterWidgetEi@Base 2.0.11
 _ZNK3Dtk6Widget9DListView15getHeaderWidgetEi@Base 2.0.11
 _ZNK3Dtk6Widget9DListView5countEv@Base 2.0.11
 _ZNK3Dtk6Widget9DListView5stateEv@Base 2.0.11
 _ZNK3Dtk6Widget9DTextEdit10metaObjectEv@Base 2.0.11
 _ZNK3Dtk6Widget9DTitlebar10metaObjectEv@Base 2.0.11
 _ZNK3Dtk6Widget9DTitlebar12customWidgetEv@Base 2.0.11
 _ZNK3Dtk6Widget9DTitlebar12disableFlagsEv@Base 2.0.11
 _ZNK3Dtk6Widget9DTitlebar15buttonAreaWidthEv@Base 2.0.11
 _ZNK3Dtk6Widget9DTitlebar16separatorVisibleEv@Base 2.0.11
 _ZNK3Dtk6Widget9DTitlebar20autoHideOnFullscreenEv@Base 2.0.11
 _ZNK3Dtk6Widget9DTitlebar4menuEv@Base 2.0.11
 (optional=templinst)_ZNK4QMapI7QString8QVariantE4keysEv@Base 2.0.11
 (optional=templinst)_ZNK4QMapIiPN3Dtk6Widget11DBaseExpandEE4keysEv@Base 2.0.11
 (optional=templinst)_ZNK4QMapIiPN3Dtk6Widget11DBaseExpandEE6valuesEv@Base 2.0.11
 (optional=templinst)_ZNK5QHashI5QPairI7QStringN3Dtk6Widget18DThumbnailProvider4SizeEE15QHashDummyValueE8findNodeERKS6_Pj@Base 2.0.11
 (optional=templinst)_ZNK5QHashI5QPairI7QStringN3Dtk6Widget18DThumbnailProvider4SizeEE15QHashDummyValueE8findNodeERKS6_j@Base 2.0.11
 (optional=templinst)_ZNK5QHashI7QString15QHashDummyValueE8findNodeERKS0_j@Base 2.0.11
 (optional=templinst)_ZNK5QHashI9QMimeTypexE8findNodeERKS0_j@Base 2.0.11
 (optional=templinst)_ZNK5QHashIP7QWidgetPKN3Dtk6Widget17DBlurEffectWidgetEE8findNodeERKS1_Pj@Base 2.0.11
 (optional=templinst)_ZNK5QHashIPKN3Dtk6Widget17DBlurEffectWidgetEP7QWidgetE8findNodeERKS4_Pj@Base 2.0.11
 (optional=templinst)_ZNK5QListI7QStringE5valueEi@Base 2.0.11
 (optional=templinst)_ZNK5QListIN14QTabBarPrivate3TabEE7indexOfERKS1_i@Base 2.0.11
 (optional=templinst)_ZNK5QListIP15QAbstractButtonE7indexOfERKS1_i@Base 2.0.11
 (optional=templinst)_ZNK5QListIP7QWidgetE7indexOfERKS1_i@Base 2.0.11
 (optional=templinst)_ZNK5QListIP9QLineEditE7indexOfERKS1_i@Base 2.0.11
 (optional=templinst)_ZNK5QListIPN3Dtk6Widget11DBaseExpandEE7indexOfERKS3_i@Base 2.0.11
 (optional=templinst)_ZNK5QListIPN3Dtk6Widget15DSimpleListItemEE7indexOfERKS3_i@Base 2.0.11
 _ZNK7QWindow4sizeEv@Base 2.0.11
 _ZNK8ComboBox10metaObjectEv@Base 2.0.11
 (optional=templinst)_ZNK8QMapDataI7QString8QVariantE8findNodeERKS0_@Base 2.0.11
 (optional=templinst)_ZNK8QMapDataI7QStringN3Dtk6Widget16DCrumbTextFormatEE8findNodeERKS0_@Base 2.0.11
 (optional=templinst)_ZNK8QMapDataI7QStringP7QWidgetE8findNodeERKS0_@Base 2.0.11
 (optional=templinst)_ZNK8QMapDataI7QStringS0_E8findNodeERKS0_@Base 2.0.11
 (optional=templinst)_ZNK8QMapNodeI7QString8QVariantE4copyEP8QMapDataIS0_S1_E@Base 2.0.11
 (optional=templinst)_ZNK8QMapNodeI7QStringN3Dtk6Widget16DCrumbTextFormatEE4copyEP8QMapDataIS0_S3_E@Base 2.0.11
 (optional=templinst)_ZNK8QMapNodeI7QStringP7QWidgetE4copyEP8QMapDataIS0_S2_E@Base 2.0.11
 (optional=templinst)_ZNK8QMapNodeI7QStringS0_E4copyEP8QMapDataIS0_S0_E@Base 2.0.11
 (optional=templinst)_ZNK8QMapNodeI7QStringSt8functionIFP7QWidgetP7QObjectEEE4copyEP8QMapDataIS0_S7_E@Base 2.0.11
 (optional=templinst)_ZNK8QMapNodeIP15QListWidgetItemPN3Dtk6Widget7DOptionEE4copyEP8QMapDataIS1_S5_E@Base 2.0.11
 (optional=templinst)_ZNK8QMapNodeIP7QWidget4QMapI7QStringS3_EE4copyEP8QMapDataIS1_S4_E@Base 2.0.11
 (optional=templinst)_ZNK8QMapNodeIPK7QWidgetPN3Dtk6Widget12DAnchorsBaseEE4copyEP8QMapDataIS2_S6_E@Base 2.0.11
 (optional=templinst)_ZNK8QMapNodeIPK7QWidgetbE4copyEP8QMapDataIS2_bE@Base 2.0.11
 (optional=templinst)_ZNK8QMapNodeIi7QStringE4copyEP8QMapDataIiS0_E@Base 2.0.11
 (optional=templinst)_ZNK8QMapNodeIiPN3Dtk6Widget11DBaseExpandEE4copyEP8QMapDataIiS3_E@Base 2.0.11
 _ZNK9DBusMPRIS10metaObjectEv@Base 2.0.11
 (optional=templinst)_ZNSt14_Function_base13_Base_managerIPFP7QWidgetP7QObjectEE10_M_managerERSt9_Any_dataRKS8_St18_Manager_operation@Base 2.0.11
 (optional=templinst)_ZNSt16_Sp_counted_baseILN9__gnu_cxx12_Lock_policyE2EE10_M_releaseEv@Base 2.0.11
 (optional=templinst)_ZNSt17_Function_handlerIFP7QWidgetP7QObjectEPS4_E9_M_invokeERKSt9_Any_dataOS3_@Base 2.0.11
 (optional=templinst)_ZNSt6vectorIN16QLineEditPrivate15SideWidgetEntryESaIS1_EE17_M_realloc_insertIJRKS1_EEEvN9__gnu_cxx17__normal_iteratorIPS1_S3_EEDpOT_@Base 2.0.11
 (optional=templinst)_ZNSt6vectorIN16QLineEditPrivate15SideWidgetEntryESaIS1_EE6insertEN9__gnu_cxx17__normal_iteratorIPKS1_S3_EERS6_@Base 2.0.11
 (optional=templinst)_ZNSt8functionIFP7QWidgetP7QObjectEEC1ERKS5_@Base 2.0.11
 (optional=templinst)_ZNSt8functionIFP7QWidgetP7QObjectEEC2ERKS5_@Base 2.0.11
 (optional=templinst)_ZNSt8functionIFvRK7QStringEEC1ERKS4_@Base 2.0.11
 (optional=templinst)_ZNSt8functionIFvRK7QStringEEC2ERKS4_@Base 2.0.11
 (optional=templinst)_ZNSt8functionIFvvEEC1ERKS1_@Base 2.0.11
 (optional=templinst)_ZNSt8functionIFvvEEC2ERKS1_@Base 2.0.11
 (optional=templinst)_ZSt13__adjust_heapIN5QListIiE8iteratorExiN9__gnu_cxx5__ops15_Iter_less_iterEEvT_T0_S7_T1_T2_@Base 2.0.11
 (optional=templinst)_ZSt16__insertion_sortIN5QListIiE8iteratorEN9__gnu_cxx5__ops15_Iter_less_iterEEvT_S6_T0_@Base 2.0.11
 _ZTI11ButtonGroup@Base 2.0.11
 _ZTI12ContentTitle@Base 2.0.11
 _ZTI12DThemeHelper@Base 2.0.11
 _ZTI12QStyleOption@Base 2.0.11
 _ZTI12ShortcutEdit@Base 2.0.11
 _ZTI13DBusInterface@Base 2.0.11
 _ZTI13DMPRISMonitor@Base 2.0.11
 _ZTI16QFutureInterfaceIbE@Base 2.0.11
 _ZTI16QFutureInterfaceIvE@Base 2.0.11
 _ZTI18NavigationDelegate@Base 2.0.11
 _ZTI18QStyleOptionButton@Base 2.0.11
 _ZTI26StartupNotificationMonitor@Base 2.0.11
 _ZTI29StartupNotificationMonitorSub@Base 2.0.11
 _ZTI8ComboBox@Base 2.0.11
 _ZTI9DBusMPRIS@Base 2.0.11
 _ZTIFP7QWidgetP7QObjectE@Base 2.0.11
 _ZTIN12QtConcurrent15RunFunctionTaskIbEE@Base 2.0.11
 _ZTIN12QtConcurrent15RunFunctionTaskIvEE@Base 2.0.11
 _ZTIN12QtConcurrent19RunFunctionTaskBaseIbEE@Base 2.0.11
 _ZTIN12QtConcurrent19RunFunctionTaskBaseIvEE@Base 2.0.11
 _ZTIN12QtConcurrent32StoredMemberFunctionPointerCall0Ib16QSystemSemaphoreEE@Base 2.0.11
 _ZTIN3Dtk6Widget10DBoxWidgetE@Base 2.0.11
 _ZTIN3Dtk6Widget10DCrumbEditE@Base 2.0.11
 _ZTIN3Dtk6Widget10DScrollBarE@Base 2.0.11
 _ZTIN3Dtk6Widget10LoadSliderE@Base 2.0.11
 _ZTIN3Dtk6Widget10NavigationE@Base 2.0.11
 _ZTIN3Dtk6Widget11DBaseButtonE@Base 2.0.11
 _ZTIN3Dtk6Widget11DBaseExpandE@Base 2.0.11
 _ZTIN3Dtk6Widget11DButtonListE@Base 2.0.11
 _ZTIN3Dtk6Widget11DFileDialogE@Base 2.0.11
 _ZTIN3Dtk6Widget11DFlowLayoutE@Base 2.0.11
 _ZTIN3Dtk6Widget11DHBoxWidgetE@Base 2.0.11
 _ZTIN3Dtk6Widget11DHeaderLineE@Base 2.0.11
 _ZTIN3Dtk6Widget11DIconButtonE@Base 2.0.11
 _ZTIN3Dtk6Widget11DLinkButtonE@Base 2.0.11
 _ZTIN3Dtk6Widget11DListWidgetE@Base 2.0.11
 _ZTIN3Dtk6Widget11DMainWindowE@Base 2.0.11
 _ZTIN3Dtk6Widget11DOptionListE@Base 2.0.11
 _ZTIN3Dtk6Widget11DPushButtonE@Base 2.0.11
 _ZTIN3Dtk6Widget11DScrollAreaE@Base 2.0.11
 _ZTIN3Dtk6Widget11DSearchEditE@Base 2.0.11
 _ZTIN3Dtk6Widget11DTextButtonE@Base 2.0.11
 _ZTIN3Dtk6Widget11DTickEffectE@Base 2.0.11
 _ZTIN3Dtk6Widget11DVBoxWidgetE@Base 2.0.11
 _ZTIN3Dtk6Widget12DAboutDialogE@Base 2.0.11
 _ZTIN3Dtk6Widget12DAnchorsBaseE@Base 2.0.11
 _ZTIN3Dtk6Widget12DApplicationE@Base 2.0.11
 _ZTIN3Dtk6Widget12DArrowButtonE@Base 2.0.11
 _ZTIN3Dtk6Widget12DExpandGroupE@Base 2.0.11
 _ZTIN3Dtk6Widget12DImageButtonE@Base 2.0.11
 _ZTIN3Dtk6Widget12DInputDialogE@Base 2.0.11
 _ZTIN3Dtk6Widget12DStackWidgetE@Base 2.0.11
 _ZTIN3Dtk6Widget12DStyleOptionE@Base 2.0.11
 _ZTIN3Dtk6Widget12DSvgRendererE@Base 2.0.11
 _ZTIN3Dtk6Widget12DVideoWidgetE@Base 2.0.11
 _ZTIN3Dtk6Widget12DialogButtonE@Base 2.0.11
 _ZTIN3Dtk6Widget13ContentLoaderE@Base 2.0.11
 _ZTIN3Dtk6Widget13DIpv4LineEditE@Base 2.0.11
 _ZTIN3Dtk6Widget13DMPRISControlE@Base 2.0.11
 _ZTIN3Dtk6Widget13DPasswordEditE@Base 2.0.11
 _ZTIN3Dtk6Widget13DShortcutEditE@Base 2.0.11
 _ZTIN3Dtk6Widget13DSwitchButtonE@Base 2.0.11
 _ZTIN3Dtk6Widget13DThemeManagerE@Base 2.0.11
 _ZTIN3Dtk6Widget13DToastPrivateE@Base 2.0.11
 _ZTIN3Dtk6Widget13DTrashManagerE@Base 2.0.11
 _ZTIN3Dtk6Widget14DDialogPrivateE@Base 2.0.11
 _ZTIN3Dtk6Widget14DDoubleSpinBoxE@Base 2.0.11
 _ZTIN3Dtk6Widget14DForeignWindowE@Base 2.0.11
 _ZTIN3Dtk6Widget14DOptionPrivateE@Base 2.0.11
 _ZTIN3Dtk6Widget14DPageIndicatorE@Base 2.0.11
 _ZTIN3Dtk6Widget14DRegionMonitorE@Base 2.0.11
 _ZTIN3Dtk6Widget14DSuggestButtonE@Base 2.0.11
 _ZTIN3Dtk6Widget14DTabBarPrivate10FullWidgetE@Base 2.0.11
 _ZTIN3Dtk6Widget14DTabBarPrivate15TabBarAnimationE@Base 2.0.11
 _ZTIN3Dtk6Widget14DTabBarPrivateE@Base 2.0.11
 _ZTIN3Dtk6Widget14DTrashManager_E@Base 2.0.11
 _ZTIN3Dtk6Widget14DWaterProgressE@Base 2.0.11
 _ZTIN3Dtk6Widget15ArrowButtonIconE@Base 2.0.11
 _ZTIN3Dtk6Widget15ArrowHeaderLineE@Base 2.0.11
 _ZTIN3Dtk6Widget15DAbstractDialogE@Base 2.0.11
 _ZTIN3Dtk6Widget15DArrowRectangleE@Base 2.0.11
 _ZTIN3Dtk6Widget15DCircleProgressE@Base 2.0.11
 _ZTIN3Dtk6Widget15DEnhancedWidgetE@Base 2.0.11
 _ZTIN3Dtk6Widget15DSettingsDialogE@Base 2.0.11
 _ZTIN3Dtk6Widget15DSimpleListItemE@Base 2.0.11
 _ZTIN3Dtk6Widget15DSimpleListViewE@Base 2.0.11
 _ZTIN3Dtk6Widget15DSpinBoxPrivateE@Base 2.0.11
 _ZTIN3Dtk6Widget15DSpinnerPrivateE@Base 2.0.11
 _ZTIN3Dtk6Widget15FilterMouseMoveE@Base 2.0.11
 _ZTIN3Dtk6Widget16DArrowLineExpandE@Base 2.0.11
 _ZTIN3Dtk6Widget16DFileChooserEditE@Base 2.0.11
 _ZTIN3Dtk6Widget16DKeyboardMonitorE@Base 2.0.11
 _ZTIN3Dtk6Widget16DLineEditPrivateE@Base 2.0.11
 _ZTIN3Dtk6Widget16DListViewPrivateE@Base 2.0.11
 _ZTIN3Dtk6Widget16DTabBarAddButtonE@Base 2.0.11
 _ZTIN3Dtk6Widget16DTextEditPrivateE@Base 2.0.11
 _ZTIN3Dtk6Widget16DTitlebarPrivateE@Base 2.0.11
 _ZTIN3Dtk6Widget16DWindowMaxButtonE@Base 2.0.11
 _ZTIN3Dtk6Widget16DWindowMinButtonE@Base 2.0.11
 _ZTIN3Dtk6Widget16VideoFormatProxyE@Base 2.0.11
 _ZTIN3Dtk6Widget17DBlurEffectWidgetE@Base 2.0.11
 _ZTIN3Dtk6Widget17DBorderlessWidgetE@Base 2.0.11
 _ZTIN3Dtk6Widget17DBorderlessWindowE@Base 2.0.11
 _ZTIN3Dtk6Widget17DBoxWidgetPrivateE@Base 2.0.11
 _ZTIN3Dtk6Widget17DClipEffectWidgetE@Base 2.0.11
 _ZTIN3Dtk6Widget17DCrumbEditPrivateE@Base 2.0.11
 _ZTIN3Dtk6Widget17DFileIconProviderE@Base 2.0.11
 _ZTIN3Dtk6Widget17DLoadingIndicatorE@Base 2.0.11
 _ZTIN3Dtk6Widget17DMovableTabWidgetE@Base 2.0.11
 _ZTIN3Dtk6Widget17DScrollBarPrivateE@Base 2.0.11
 _ZTIN3Dtk6Widget17DSegmentedControlE@Base 2.0.11
 _ZTIN3Dtk6Widget17DSwitchHeaderLineE@Base 2.0.11
 _ZTIN3Dtk6Widget17DSwitchLineExpandE@Base 2.0.11
 _ZTIN3Dtk6Widget17DVariantListModelE@Base 2.0.11
 _ZTIN3Dtk6Widget18DFlowLayoutPrivateE@Base 2.0.11
 _ZTIN3Dtk6Widget18DListWidgetPrivateE@Base 2.0.11
 _ZTIN3Dtk6Widget18DMainWindowPrivateE@Base 2.0.11
 _ZTIN3Dtk6Widget18DOptionListPrivateE@Base 2.0.11
 _ZTIN3Dtk6Widget18DPushButtonPrivateE@Base 2.0.11
 _ZTIN3Dtk6Widget18DScrollAreaPrivateE@Base 2.0.11
 _ZTIN3Dtk6Widget18DSeparatorVerticalE@Base 2.0.11
 _ZTIN3Dtk6Widget18DShortcutEditLabelE@Base 2.0.11
 _ZTIN3Dtk6Widget18DThumbnailProviderE@Base 2.0.11
 _ZTIN3Dtk6Widget18DTickEffectPrivateE@Base 2.0.11
 _ZTIN3Dtk6Widget18DWindowCloseButtonE@Base 2.0.11
 _ZTIN3Dtk6Widget19DAboutDialogPrivateE@Base 2.0.11
 _ZTIN3Dtk6Widget19DApplicationPrivateE@Base 2.0.11
 _ZTIN3Dtk6Widget19DGraphicsClipEffectE@Base 2.0.11
 _ZTIN3Dtk6Widget19DGraphicsGlowEffectE@Base 2.0.11
 _ZTIN3Dtk6Widget19DImageButtonPrivateE@Base 2.0.11
 _ZTIN3Dtk6Widget19DInputDialogPrivateE@Base 2.0.11
 _ZTIN3Dtk6Widget19DPasswdEditAnimatedE@Base 2.0.11
 _ZTIN3Dtk6Widget19DSegmentedHighlightE@Base 2.0.11
 _ZTIN3Dtk6Widget19DStackWidgetPrivateE@Base 2.0.11
 _ZTIN3Dtk6Widget19DSvgRendererPrivateE@Base 2.0.11
 _ZTIN3Dtk6Widget19DVideoWidgetPrivateE@Base 2.0.11
 _ZTIN3Dtk6Widget19DWindowOptionButtonE@Base 2.0.11
 _ZTIN3Dtk6Widget20CrumbObjectInterfaceE@Base 2.0.11
 _ZTIN3Dtk6Widget20DIpv4LineEditPrivateE@Base 2.0.11
 _ZTIN3Dtk6Widget20DMPRISControlPrivateE@Base 2.0.11
 _ZTIN3Dtk6Widget20DPasswordEditPrivateE@Base 2.0.11
 _ZTIN3Dtk6Widget20DPictureSequenceViewE@Base 2.0.11
 _ZTIN3Dtk6Widget20DSeparatorHorizontalE@Base 2.0.11
 _ZTIN3Dtk6Widget20DStyleOptionLineEditE@Base 2.0.11
 _ZTIN3Dtk6Widget20DSwitchButtonPrivateE@Base 2.0.11
 _ZTIN3Dtk6Widget20DThemeManagerPrivateE@Base 2.0.11
 _ZTIN3Dtk6Widget20DTrashManagerPrivateE@Base 2.0.11
 _ZTIN3Dtk6Widget20DWindowManagerHelperE@Base 2.0.11
 _ZTIN3Dtk6Widget21DDoubleSpinBoxPrivateE@Base 2.0.11
 _ZTIN3Dtk6Widget21DForeignWindowPrivateE@Base 2.0.11
 _ZTIN3Dtk6Widget21DPageIndicatorPrivateE@Base 2.0.11
 _ZTIN3Dtk6Widget21DPlatformWindowHandleE@Base 2.0.11
 _ZTIN3Dtk6Widget21DRegionMonitorPrivateE@Base 2.0.11
 _ZTIN3Dtk6Widget21DWaterProgressPrivateE@Base 2.0.11
 _ZTIN3Dtk6Widget21DWindowManagerHelper_E@Base 2.0.11
 _ZTIN3Dtk6Widget22DAbstractDialogPrivateE@Base 2.0.11
 _ZTIN3Dtk6Widget22DArrowRectanglePrivateE@Base 2.0.11
 _ZTIN3Dtk6Widget22DCircleProgressPrivateE@Base 2.0.11
 _ZTIN3Dtk6Widget22DSettingsWidgetFactoryE@Base 2.0.11
 _ZTIN3Dtk6Widget22DSimpleListViewPrivateE@Base 2.0.11
 _ZTIN3Dtk6Widget23DFileChooserEditPrivateE@Base 2.0.11
 _ZTIN3Dtk6Widget23DWindowMaxButtonPrivateE@Base 2.0.11
 _ZTIN3Dtk6Widget24DBlurEffectWidgetPrivateE@Base 2.0.11
 _ZTIN3Dtk6Widget24DBorderlessWidgetPrivateE@Base 2.0.11
 _ZTIN3Dtk6Widget24DBorderlessWindowPrivateE@Base 2.0.11
 _ZTIN3Dtk6Widget24DClipEffectWidgetPrivateE@Base 2.0.11
 _ZTIN3Dtk6Widget24DFileIconProviderPrivateE@Base 2.0.11
 _ZTIN3Dtk6Widget24DLoadingIndicatorPrivateE@Base 2.0.11
 _ZTIN3Dtk6Widget24DSegmentedControlPrivateE@Base 2.0.11
 _ZTIN3Dtk6Widget25DStyleOptionSuggestButtonE@Base 2.0.11
 _ZTIN3Dtk6Widget25DThumbnailProviderPrivateE@Base 2.0.11
 _ZTIN3Dtk6Widget26DGraphicsClipEffectPrivateE@Base 2.0.11
 _ZTIN3Dtk6Widget26DPasswdEditAnimatedPrivateE@Base 2.0.11
 _ZTIN3Dtk6Widget26DThemeManagerStaticPrivateE@Base 2.0.11
 _ZTIN3Dtk6Widget27DPictureSequenceViewPrivateE@Base 2.0.11
 _ZTIN3Dtk6Widget27DSlideStackWidgetTransitionE@Base 2.0.11
 _ZTIN3Dtk6Widget27DWindowManagerHelperPrivateE@Base 2.0.11
 _ZTIN3Dtk6Widget29DFileThumbnailProviderPrivateE@Base 2.0.11
 _ZTIN3Dtk6Widget30DAbstractStackWidgetTransitionE@Base 2.0.11
 _ZTIN3Dtk6Widget37DAbstractStackWidgetTransitionPrivateE@Base 2.0.11
 _ZTIN3Dtk6Widget6DLabelE@Base 2.0.11
 _ZTIN3Dtk6Widget6DToastE@Base 2.0.11
 _ZTIN3Dtk6Widget7ContentE@Base 2.0.11
 _ZTIN3Dtk6Widget7DDialogE@Base 2.0.11
 _ZTIN3Dtk6Widget7DOptionE@Base 2.0.11
 _ZTIN3Dtk6Widget7DSliderE@Base 2.0.11
 _ZTIN3Dtk6Widget7DTabBarE@Base 2.0.11
 _ZTIN3Dtk6Widget8DSpinBoxE@Base 2.0.11
 _ZTIN3Dtk6Widget8DSpinnerE@Base 2.0.11
 _ZTIN3Dtk6Widget9DBaseLineE@Base 2.0.11
 _ZTIN3Dtk6Widget9DLineEditE@Base 2.0.11
 _ZTIN3Dtk6Widget9DListViewE@Base 2.0.11
 _ZTIN3Dtk6Widget9DTextEditE@Base 2.0.11
 _ZTIN3Dtk6Widget9DTitlebarE@Base 2.0.11
 _ZTIPFP7QWidgetP7QObjectE@Base 2.0.11
 _ZTS11ButtonGroup@Base 2.0.11
 _ZTS12ContentTitle@Base 2.0.11
 _ZTS12DThemeHelper@Base 2.0.11
 _ZTS12QStyleOption@Base 2.0.11
 _ZTS12ShortcutEdit@Base 2.0.11
 _ZTS13DBusInterface@Base 2.0.11
 _ZTS13DMPRISMonitor@Base 2.0.11
 _ZTS16QFutureInterfaceIbE@Base 2.0.11
 _ZTS16QFutureInterfaceIvE@Base 2.0.11
 _ZTS18NavigationDelegate@Base 2.0.11
 _ZTS18QStyleOptionButton@Base 2.0.11
 _ZTS26StartupNotificationMonitor@Base 2.0.11
 _ZTS29StartupNotificationMonitorSub@Base 2.0.11
 _ZTS8ComboBox@Base 2.0.11
 _ZTS9DBusMPRIS@Base 2.0.11
 _ZTSFP7QWidgetP7QObjectE@Base 2.0.11
 _ZTSN12QtConcurrent15RunFunctionTaskIbEE@Base 2.0.11
 _ZTSN12QtConcurrent15RunFunctionTaskIvEE@Base 2.0.11
 _ZTSN12QtConcurrent19RunFunctionTaskBaseIbEE@Base 2.0.11
 _ZTSN12QtConcurrent19RunFunctionTaskBaseIvEE@Base 2.0.11
 _ZTSN12QtConcurrent32StoredMemberFunctionPointerCall0Ib16QSystemSemaphoreEE@Base 2.0.11
 _ZTSN3Dtk6Widget10DBoxWidgetE@Base 2.0.11
 _ZTSN3Dtk6Widget10DCrumbEditE@Base 2.0.11
 _ZTSN3Dtk6Widget10DScrollBarE@Base 2.0.11
 _ZTSN3Dtk6Widget10LoadSliderE@Base 2.0.11
 _ZTSN3Dtk6Widget10NavigationE@Base 2.0.11
 _ZTSN3Dtk6Widget11DBaseButtonE@Base 2.0.11
 _ZTSN3Dtk6Widget11DBaseExpandE@Base 2.0.11
 _ZTSN3Dtk6Widget11DButtonListE@Base 2.0.11
 _ZTSN3Dtk6Widget11DFileDialogE@Base 2.0.11
 _ZTSN3Dtk6Widget11DFlowLayoutE@Base 2.0.11
 _ZTSN3Dtk6Widget11DHBoxWidgetE@Base 2.0.11
 _ZTSN3Dtk6Widget11DHeaderLineE@Base 2.0.11
 _ZTSN3Dtk6Widget11DIconButtonE@Base 2.0.11
 _ZTSN3Dtk6Widget11DLinkButtonE@Base 2.0.11
 _ZTSN3Dtk6Widget11DListWidgetE@Base 2.0.11
 _ZTSN3Dtk6Widget11DMainWindowE@Base 2.0.11
 _ZTSN3Dtk6Widget11DOptionListE@Base 2.0.11
 _ZTSN3Dtk6Widget11DPushButtonE@Base 2.0.11
 _ZTSN3Dtk6Widget11DScrollAreaE@Base 2.0.11
 _ZTSN3Dtk6Widget11DSearchEditE@Base 2.0.11
 _ZTSN3Dtk6Widget11DTextButtonE@Base 2.0.11
 _ZTSN3Dtk6Widget11DTickEffectE@Base 2.0.11
 _ZTSN3Dtk6Widget11DVBoxWidgetE@Base 2.0.11
 _ZTSN3Dtk6Widget12DAboutDialogE@Base 2.0.11
 _ZTSN3Dtk6Widget12DAnchorsBaseE@Base 2.0.11
 _ZTSN3Dtk6Widget12DApplicationE@Base 2.0.11
 _ZTSN3Dtk6Widget12DArrowButtonE@Base 2.0.11
 _ZTSN3Dtk6Widget12DExpandGroupE@Base 2.0.11
 _ZTSN3Dtk6Widget12DImageButtonE@Base 2.0.11
 _ZTSN3Dtk6Widget12DInputDialogE@Base 2.0.11
 _ZTSN3Dtk6Widget12DStackWidgetE@Base 2.0.11
 _ZTSN3Dtk6Widget12DStyleOptionE@Base 2.0.11
 _ZTSN3Dtk6Widget12DSvgRendererE@Base 2.0.11
 _ZTSN3Dtk6Widget12DVideoWidgetE@Base 2.0.11
 _ZTSN3Dtk6Widget12DialogButtonE@Base 2.0.11
 _ZTSN3Dtk6Widget13ContentLoaderE@Base 2.0.11
 _ZTSN3Dtk6Widget13DIpv4LineEditE@Base 2.0.11
 _ZTSN3Dtk6Widget13DMPRISControlE@Base 2.0.11
 _ZTSN3Dtk6Widget13DPasswordEditE@Base 2.0.11
 _ZTSN3Dtk6Widget13DShortcutEditE@Base 2.0.11
 _ZTSN3Dtk6Widget13DSwitchButtonE@Base 2.0.11
 _ZTSN3Dtk6Widget13DThemeManagerE@Base 2.0.11
 _ZTSN3Dtk6Widget13DToastPrivateE@Base 2.0.11
 _ZTSN3Dtk6Widget13DTrashManagerE@Base 2.0.11
 _ZTSN3Dtk6Widget14DDialogPrivateE@Base 2.0.11
 _ZTSN3Dtk6Widget14DDoubleSpinBoxE@Base 2.0.11
 _ZTSN3Dtk6Widget14DForeignWindowE@Base 2.0.11
 _ZTSN3Dtk6Widget14DOptionPrivateE@Base 2.0.11
 _ZTSN3Dtk6Widget14DPageIndicatorE@Base 2.0.11
 _ZTSN3Dtk6Widget14DRegionMonitorE@Base 2.0.11
 _ZTSN3Dtk6Widget14DSuggestButtonE@Base 2.0.11
 _ZTSN3Dtk6Widget14DTabBarPrivate10FullWidgetE@Base 2.0.11
 _ZTSN3Dtk6Widget14DTabBarPrivate15TabBarAnimationE@Base 2.0.11
 _ZTSN3Dtk6Widget14DTabBarPrivateE@Base 2.0.11
 _ZTSN3Dtk6Widget14DTrashManager_E@Base 2.0.11
 _ZTSN3Dtk6Widget14DWaterProgressE@Base 2.0.11
 _ZTSN3Dtk6Widget15ArrowButtonIconE@Base 2.0.11
 _ZTSN3Dtk6Widget15ArrowHeaderLineE@Base 2.0.11
 _ZTSN3Dtk6Widget15DAbstractDialogE@Base 2.0.11
 _ZTSN3Dtk6Widget15DArrowRectangleE@Base 2.0.11
 _ZTSN3Dtk6Widget15DCircleProgressE@Base 2.0.11
 _ZTSN3Dtk6Widget15DEnhancedWidgetE@Base 2.0.11
 _ZTSN3Dtk6Widget15DSettingsDialogE@Base 2.0.11
 _ZTSN3Dtk6Widget15DSimpleListItemE@Base 2.0.11
 _ZTSN3Dtk6Widget15DSimpleListViewE@Base 2.0.11
 _ZTSN3Dtk6Widget15DSpinBoxPrivateE@Base 2.0.11
 _ZTSN3Dtk6Widget15DSpinnerPrivateE@Base 2.0.11
 _ZTSN3Dtk6Widget15FilterMouseMoveE@Base 2.0.11
 _ZTSN3Dtk6Widget16DArrowLineExpandE@Base 2.0.11
 _ZTSN3Dtk6Widget16DFileChooserEditE@Base 2.0.11
 _ZTSN3Dtk6Widget16DKeyboardMonitorE@Base 2.0.11
 _ZTSN3Dtk6Widget16DLineEditPrivateE@Base 2.0.11
 _ZTSN3Dtk6Widget16DListViewPrivateE@Base 2.0.11
 _ZTSN3Dtk6Widget16DTabBarAddButtonE@Base 2.0.11
 _ZTSN3Dtk6Widget16DTextEditPrivateE@Base 2.0.11
 _ZTSN3Dtk6Widget16DTitlebarPrivateE@Base 2.0.11
 _ZTSN3Dtk6Widget16DWindowMaxButtonE@Base 2.0.11
 _ZTSN3Dtk6Widget16DWindowMinButtonE@Base 2.0.11
 _ZTSN3Dtk6Widget16VideoFormatProxyE@Base 2.0.11
 _ZTSN3Dtk6Widget17DBlurEffectWidgetE@Base 2.0.11
 _ZTSN3Dtk6Widget17DBorderlessWidgetE@Base 2.0.11
 _ZTSN3Dtk6Widget17DBorderlessWindowE@Base 2.0.11
 _ZTSN3Dtk6Widget17DBoxWidgetPrivateE@Base 2.0.11
 _ZTSN3Dtk6Widget17DClipEffectWidgetE@Base 2.0.11
 _ZTSN3Dtk6Widget17DCrumbEditPrivateE@Base 2.0.11
 _ZTSN3Dtk6Widget17DFileIconProviderE@Base 2.0.11
 _ZTSN3Dtk6Widget17DLoadingIndicatorE@Base 2.0.11
 _ZTSN3Dtk6Widget17DMovableTabWidgetE@Base 2.0.11
 _ZTSN3Dtk6Widget17DScrollBarPrivateE@Base 2.0.11
 _ZTSN3Dtk6Widget17DSegmentedControlE@Base 2.0.11
 _ZTSN3Dtk6Widget17DSwitchHeaderLineE@Base 2.0.11
 _ZTSN3Dtk6Widget17DSwitchLineExpandE@Base 2.0.11
 _ZTSN3Dtk6Widget17DVariantListModelE@Base 2.0.11
 _ZTSN3Dtk6Widget18DFlowLayoutPrivateE@Base 2.0.11
 _ZTSN3Dtk6Widget18DListWidgetPrivateE@Base 2.0.11
 _ZTSN3Dtk6Widget18DMainWindowPrivateE@Base 2.0.11
 _ZTSN3Dtk6Widget18DOptionListPrivateE@Base 2.0.11
 _ZTSN3Dtk6Widget18DPushButtonPrivateE@Base 2.0.11
 _ZTSN3Dtk6Widget18DScrollAreaPrivateE@Base 2.0.11
 _ZTSN3Dtk6Widget18DSeparatorVerticalE@Base 2.0.11
 _ZTSN3Dtk6Widget18DShortcutEditLabelE@Base 2.0.11
 _ZTSN3Dtk6Widget18DThumbnailProviderE@Base 2.0.11
 _ZTSN3Dtk6Widget18DTickEffectPrivateE@Base 2.0.11
 _ZTSN3Dtk6Widget18DWindowCloseButtonE@Base 2.0.11
 _ZTSN3Dtk6Widget19DAboutDialogPrivateE@Base 2.0.11
 _ZTSN3Dtk6Widget19DApplicationPrivateE@Base 2.0.11
 _ZTSN3Dtk6Widget19DGraphicsClipEffectE@Base 2.0.11
 _ZTSN3Dtk6Widget19DGraphicsGlowEffectE@Base 2.0.11
 _ZTSN3Dtk6Widget19DImageButtonPrivateE@Base 2.0.11
 _ZTSN3Dtk6Widget19DInputDialogPrivateE@Base 2.0.11
 _ZTSN3Dtk6Widget19DPasswdEditAnimatedE@Base 2.0.11
 _ZTSN3Dtk6Widget19DSegmentedHighlightE@Base 2.0.11
 _ZTSN3Dtk6Widget19DStackWidgetPrivateE@Base 2.0.11
 _ZTSN3Dtk6Widget19DSvgRendererPrivateE@Base 2.0.11
 _ZTSN3Dtk6Widget19DVideoWidgetPrivateE@Base 2.0.11
 _ZTSN3Dtk6Widget19DWindowOptionButtonE@Base 2.0.11
 _ZTSN3Dtk6Widget20CrumbObjectInterfaceE@Base 2.0.11
 _ZTSN3Dtk6Widget20DIpv4LineEditPrivateE@Base 2.0.11
 _ZTSN3Dtk6Widget20DMPRISControlPrivateE@Base 2.0.11
 _ZTSN3Dtk6Widget20DPasswordEditPrivateE@Base 2.0.11
 _ZTSN3Dtk6Widget20DPictureSequenceViewE@Base 2.0.11
 _ZTSN3Dtk6Widget20DSeparatorHorizontalE@Base 2.0.11
 _ZTSN3Dtk6Widget20DStyleOptionLineEditE@Base 2.0.11
 _ZTSN3Dtk6Widget20DSwitchButtonPrivateE@Base 2.0.11
 _ZTSN3Dtk6Widget20DThemeManagerPrivateE@Base 2.0.11
 _ZTSN3Dtk6Widget20DTrashManagerPrivateE@Base 2.0.11
 _ZTSN3Dtk6Widget20DWindowManagerHelperE@Base 2.0.11
 _ZTSN3Dtk6Widget21DDoubleSpinBoxPrivateE@Base 2.0.11
 _ZTSN3Dtk6Widget21DForeignWindowPrivateE@Base 2.0.11
 _ZTSN3Dtk6Widget21DPageIndicatorPrivateE@Base 2.0.11
 _ZTSN3Dtk6Widget21DPlatformWindowHandleE@Base 2.0.11
 _ZTSN3Dtk6Widget21DRegionMonitorPrivateE@Base 2.0.11
 _ZTSN3Dtk6Widget21DWaterProgressPrivateE@Base 2.0.11
 _ZTSN3Dtk6Widget21DWindowManagerHelper_E@Base 2.0.11
 _ZTSN3Dtk6Widget22DAbstractDialogPrivateE@Base 2.0.11
 _ZTSN3Dtk6Widget22DArrowRectanglePrivateE@Base 2.0.11
 _ZTSN3Dtk6Widget22DCircleProgressPrivateE@Base 2.0.11
 _ZTSN3Dtk6Widget22DSettingsWidgetFactoryE@Base 2.0.11
 _ZTSN3Dtk6Widget22DSimpleListViewPrivateE@Base 2.0.11
 _ZTSN3Dtk6Widget23DFileChooserEditPrivateE@Base 2.0.11
 _ZTSN3Dtk6Widget23DWindowMaxButtonPrivateE@Base 2.0.11
 _ZTSN3Dtk6Widget24DBlurEffectWidgetPrivateE@Base 2.0.11
 _ZTSN3Dtk6Widget24DBorderlessWidgetPrivateE@Base 2.0.11
 _ZTSN3Dtk6Widget24DBorderlessWindowPrivateE@Base 2.0.11
 _ZTSN3Dtk6Widget24DClipEffectWidgetPrivateE@Base 2.0.11
 _ZTSN3Dtk6Widget24DFileIconProviderPrivateE@Base 2.0.11
 _ZTSN3Dtk6Widget24DLoadingIndicatorPrivateE@Base 2.0.11
 _ZTSN3Dtk6Widget24DSegmentedControlPrivateE@Base 2.0.11
 _ZTSN3Dtk6Widget25DStyleOptionSuggestButtonE@Base 2.0.11
 _ZTSN3Dtk6Widget25DThumbnailProviderPrivateE@Base 2.0.11
 _ZTSN3Dtk6Widget26DGraphicsClipEffectPrivateE@Base 2.0.11
 _ZTSN3Dtk6Widget26DPasswdEditAnimatedPrivateE@Base 2.0.11
 _ZTSN3Dtk6Widget26DThemeManagerStaticPrivateE@Base 2.0.11
 _ZTSN3Dtk6Widget27DPictureSequenceViewPrivateE@Base 2.0.11
 _ZTSN3Dtk6Widget27DSlideStackWidgetTransitionE@Base 2.0.11
 _ZTSN3Dtk6Widget27DWindowManagerHelperPrivateE@Base 2.0.11
 _ZTSN3Dtk6Widget29DFileThumbnailProviderPrivateE@Base 2.0.11
 _ZTSN3Dtk6Widget30DAbstractStackWidgetTransitionE@Base 2.0.11
 _ZTSN3Dtk6Widget37DAbstractStackWidgetTransitionPrivateE@Base 2.0.11
 _ZTSN3Dtk6Widget6DLabelE@Base 2.0.11
 _ZTSN3Dtk6Widget6DToastE@Base 2.0.11
 _ZTSN3Dtk6Widget7ContentE@Base 2.0.11
 _ZTSN3Dtk6Widget7DDialogE@Base 2.0.11
 _ZTSN3Dtk6Widget7DOptionE@Base 2.0.11
 _ZTSN3Dtk6Widget7DSliderE@Base 2.0.11
 _ZTSN3Dtk6Widget7DTabBarE@Base 2.0.11
 _ZTSN3Dtk6Widget8DSpinBoxE@Base 2.0.11
 _ZTSN3Dtk6Widget8DSpinnerE@Base 2.0.11
 _ZTSN3Dtk6Widget9DBaseLineE@Base 2.0.11
 _ZTSN3Dtk6Widget9DLineEditE@Base 2.0.11
 _ZTSN3Dtk6Widget9DListViewE@Base 2.0.11
 _ZTSN3Dtk6Widget9DTextEditE@Base 2.0.11
 _ZTSN3Dtk6Widget9DTitlebarE@Base 2.0.11
 _ZTSPFP7QWidgetP7QObjectE@Base 2.0.11
 _ZTV11ButtonGroup@Base 2.0.11
 _ZTV12ContentTitle@Base 2.0.11
 _ZTV12DThemeHelper@Base 2.0.11
 _ZTV12ShortcutEdit@Base 2.0.11
 _ZTV13DBusInterface@Base 2.0.11
 _ZTV13DMPRISMonitor@Base 2.0.11
 _ZTV16QFutureInterfaceIbE@Base 2.0.11
 _ZTV16QFutureInterfaceIvE@Base 2.0.11
 _ZTV18NavigationDelegate@Base 2.0.11
 _ZTV26StartupNotificationMonitor@Base 2.0.11
 _ZTV29StartupNotificationMonitorSub@Base 2.0.11
 _ZTV8ComboBox@Base 2.0.11
 _ZTV9DBusMPRIS@Base 2.0.11
 _ZTVN12QtConcurrent19RunFunctionTaskBaseIbEE@Base 2.0.11
 _ZTVN12QtConcurrent19RunFunctionTaskBaseIvEE@Base 2.0.11
 _ZTVN12QtConcurrent32StoredMemberFunctionPointerCall0Ib16QSystemSemaphoreEE@Base 2.0.11
 _ZTVN3Dtk6Widget10DBoxWidgetE@Base 2.0.11
 _ZTVN3Dtk6Widget10DCrumbEditE@Base 2.0.11
 _ZTVN3Dtk6Widget10DScrollBarE@Base 2.0.11
 _ZTVN3Dtk6Widget10LoadSliderE@Base 2.0.11
 _ZTVN3Dtk6Widget10NavigationE@Base 2.0.11
 _ZTVN3Dtk6Widget11DBaseButtonE@Base 2.0.11
 _ZTVN3Dtk6Widget11DBaseExpandE@Base 2.0.11
 _ZTVN3Dtk6Widget11DButtonListE@Base 2.0.11
 _ZTVN3Dtk6Widget11DFileDialogE@Base 2.0.11
 _ZTVN3Dtk6Widget11DFlowLayoutE@Base 2.0.11
 _ZTVN3Dtk6Widget11DHBoxWidgetE@Base 2.0.11
 _ZTVN3Dtk6Widget11DHeaderLineE@Base 2.0.11
 _ZTVN3Dtk6Widget11DIconButtonE@Base 2.0.11
 _ZTVN3Dtk6Widget11DLinkButtonE@Base 2.0.11
 _ZTVN3Dtk6Widget11DListWidgetE@Base 2.0.11
 _ZTVN3Dtk6Widget11DMainWindowE@Base 2.0.11
 _ZTVN3Dtk6Widget11DOptionListE@Base 2.0.11
 _ZTVN3Dtk6Widget11DPushButtonE@Base 2.0.11
 _ZTVN3Dtk6Widget11DScrollAreaE@Base 2.0.11
 _ZTVN3Dtk6Widget11DSearchEditE@Base 2.0.11
 _ZTVN3Dtk6Widget11DTextButtonE@Base 2.0.11
 _ZTVN3Dtk6Widget11DTickEffectE@Base 2.0.11
 _ZTVN3Dtk6Widget11DVBoxWidgetE@Base 2.0.11
 _ZTVN3Dtk6Widget12DAboutDialogE@Base 2.0.11
 _ZTVN3Dtk6Widget12DAnchorsBaseE@Base 2.0.11
 _ZTVN3Dtk6Widget12DApplicationE@Base 2.0.11
 _ZTVN3Dtk6Widget12DArrowButtonE@Base 2.0.11
 _ZTVN3Dtk6Widget12DExpandGroupE@Base 2.0.11
 _ZTVN3Dtk6Widget12DImageButtonE@Base 2.0.11
 _ZTVN3Dtk6Widget12DInputDialogE@Base 2.0.11
 _ZTVN3Dtk6Widget12DStackWidgetE@Base 2.0.11
 _ZTVN3Dtk6Widget12DStyleOptionE@Base 2.0.11
 _ZTVN3Dtk6Widget12DSvgRendererE@Base 2.0.11
 _ZTVN3Dtk6Widget12DVideoWidgetE@Base 2.0.11
 _ZTVN3Dtk6Widget12DialogButtonE@Base 2.0.11
 _ZTVN3Dtk6Widget13ContentLoaderE@Base 2.0.11
 _ZTVN3Dtk6Widget13DIpv4LineEditE@Base 2.0.11
 _ZTVN3Dtk6Widget13DMPRISControlE@Base 2.0.11
 _ZTVN3Dtk6Widget13DPasswordEditE@Base 2.0.11
 _ZTVN3Dtk6Widget13DShortcutEditE@Base 2.0.11
 _ZTVN3Dtk6Widget13DSwitchButtonE@Base 2.0.11
 _ZTVN3Dtk6Widget13DThemeManagerE@Base 2.0.11
 _ZTVN3Dtk6Widget13DToastPrivateE@Base 2.0.11
 _ZTVN3Dtk6Widget13DTrashManagerE@Base 2.0.11
 _ZTVN3Dtk6Widget14DDialogPrivateE@Base 2.0.11
 _ZTVN3Dtk6Widget14DDoubleSpinBoxE@Base 2.0.11
 _ZTVN3Dtk6Widget14DForeignWindowE@Base 2.0.11
 _ZTVN3Dtk6Widget14DOptionPrivateE@Base 2.0.11
 _ZTVN3Dtk6Widget14DPageIndicatorE@Base 2.0.11
 _ZTVN3Dtk6Widget14DRegionMonitorE@Base 2.0.11
 _ZTVN3Dtk6Widget14DSuggestButtonE@Base 2.0.11
 _ZTVN3Dtk6Widget14DTabBarPrivate10FullWidgetE@Base 2.0.11
 _ZTVN3Dtk6Widget14DTabBarPrivate15TabBarAnimationE@Base 2.0.11
 _ZTVN3Dtk6Widget14DTabBarPrivateE@Base 2.0.11
 _ZTVN3Dtk6Widget14DTrashManager_E@Base 2.0.11
 _ZTVN3Dtk6Widget14DWaterProgressE@Base 2.0.11
 _ZTVN3Dtk6Widget15ArrowButtonIconE@Base 2.0.11
 _ZTVN3Dtk6Widget15ArrowHeaderLineE@Base 2.0.11
 _ZTVN3Dtk6Widget15DAbstractDialogE@Base 2.0.11
 _ZTVN3Dtk6Widget15DArrowRectangleE@Base 2.0.11
 _ZTVN3Dtk6Widget15DCircleProgressE@Base 2.0.11
 _ZTVN3Dtk6Widget15DEnhancedWidgetE@Base 2.0.11
 _ZTVN3Dtk6Widget15DSettingsDialogE@Base 2.0.11
 _ZTVN3Dtk6Widget15DSimpleListItemE@Base 2.0.11
 _ZTVN3Dtk6Widget15DSimpleListViewE@Base 2.0.11
 _ZTVN3Dtk6Widget15DSpinBoxPrivateE@Base 2.0.11
 _ZTVN3Dtk6Widget15DSpinnerPrivateE@Base 2.0.11
 _ZTVN3Dtk6Widget15FilterMouseMoveE@Base 2.0.11
 _ZTVN3Dtk6Widget16DArrowLineExpandE@Base 2.0.11
 _ZTVN3Dtk6Widget16DFileChooserEditE@Base 2.0.11
 _ZTVN3Dtk6Widget16DKeyboardMonitorE@Base 2.0.11
 _ZTVN3Dtk6Widget16DLineEditPrivateE@Base 2.0.11
 _ZTVN3Dtk6Widget16DListViewPrivateE@Base 2.0.11
 _ZTVN3Dtk6Widget16DTabBarAddButtonE@Base 2.0.11
 _ZTVN3Dtk6Widget16DTextEditPrivateE@Base 2.0.11
 _ZTVN3Dtk6Widget16DTitlebarPrivateE@Base 2.0.11
 _ZTVN3Dtk6Widget16DWindowMaxButtonE@Base 2.0.11
 _ZTVN3Dtk6Widget16DWindowMinButtonE@Base 2.0.11
 _ZTVN3Dtk6Widget16VideoFormatProxyE@Base 2.0.11
 _ZTVN3Dtk6Widget17DBlurEffectWidgetE@Base 2.0.11
 _ZTVN3Dtk6Widget17DBorderlessWidgetE@Base 2.0.11
 _ZTVN3Dtk6Widget17DBorderlessWindowE@Base 2.0.11
 _ZTVN3Dtk6Widget17DBoxWidgetPrivateE@Base 2.0.11
 _ZTVN3Dtk6Widget17DClipEffectWidgetE@Base 2.0.11
 _ZTVN3Dtk6Widget17DCrumbEditPrivateE@Base 2.0.11
 _ZTVN3Dtk6Widget17DFileIconProviderE@Base 2.0.11
 _ZTVN3Dtk6Widget17DLoadingIndicatorE@Base 2.0.11
 _ZTVN3Dtk6Widget17DMovableTabWidgetE@Base 2.0.11
 _ZTVN3Dtk6Widget17DScrollBarPrivateE@Base 2.0.11
 _ZTVN3Dtk6Widget17DSegmentedControlE@Base 2.0.11
 _ZTVN3Dtk6Widget17DSwitchHeaderLineE@Base 2.0.11
 _ZTVN3Dtk6Widget17DSwitchLineExpandE@Base 2.0.11
 _ZTVN3Dtk6Widget17DVariantListModelE@Base 2.0.11
 _ZTVN3Dtk6Widget18DFlowLayoutPrivateE@Base 2.0.11
 _ZTVN3Dtk6Widget18DListWidgetPrivateE@Base 2.0.11
 _ZTVN3Dtk6Widget18DMainWindowPrivateE@Base 2.0.11
 _ZTVN3Dtk6Widget18DOptionListPrivateE@Base 2.0.11
 _ZTVN3Dtk6Widget18DPushButtonPrivateE@Base 2.0.11
 _ZTVN3Dtk6Widget18DScrollAreaPrivateE@Base 2.0.11
 _ZTVN3Dtk6Widget18DSeparatorVerticalE@Base 2.0.11
 _ZTVN3Dtk6Widget18DShortcutEditLabelE@Base 2.0.11
 _ZTVN3Dtk6Widget18DThumbnailProviderE@Base 2.0.11
 _ZTVN3Dtk6Widget18DTickEffectPrivateE@Base 2.0.11
 _ZTVN3Dtk6Widget18DWindowCloseButtonE@Base 2.0.11
 _ZTVN3Dtk6Widget19DAboutDialogPrivateE@Base 2.0.11
 _ZTVN3Dtk6Widget19DApplicationPrivateE@Base 2.0.11
 _ZTVN3Dtk6Widget19DGraphicsClipEffectE@Base 2.0.11
 _ZTVN3Dtk6Widget19DGraphicsGlowEffectE@Base 2.0.11
 _ZTVN3Dtk6Widget19DImageButtonPrivateE@Base 2.0.11
 _ZTVN3Dtk6Widget19DInputDialogPrivateE@Base 2.0.11
 _ZTVN3Dtk6Widget19DPasswdEditAnimatedE@Base 2.0.11
 _ZTVN3Dtk6Widget19DSegmentedHighlightE@Base 2.0.11
 _ZTVN3Dtk6Widget19DStackWidgetPrivateE@Base 2.0.11
 _ZTVN3Dtk6Widget19DSvgRendererPrivateE@Base 2.0.11
 _ZTVN3Dtk6Widget19DVideoWidgetPrivateE@Base 2.0.11
 _ZTVN3Dtk6Widget19DWindowOptionButtonE@Base 2.0.11
 _ZTVN3Dtk6Widget20CrumbObjectInterfaceE@Base 2.0.11
 _ZTVN3Dtk6Widget20DIpv4LineEditPrivateE@Base 2.0.11
 _ZTVN3Dtk6Widget20DMPRISControlPrivateE@Base 2.0.11
 _ZTVN3Dtk6Widget20DPasswordEditPrivateE@Base 2.0.11
 _ZTVN3Dtk6Widget20DPictureSequenceViewE@Base 2.0.11
 _ZTVN3Dtk6Widget20DSeparatorHorizontalE@Base 2.0.11
 _ZTVN3Dtk6Widget20DStyleOptionLineEditE@Base 2.0.11
 _ZTVN3Dtk6Widget20DSwitchButtonPrivateE@Base 2.0.11
 _ZTVN3Dtk6Widget20DThemeManagerPrivateE@Base 2.0.11
 _ZTVN3Dtk6Widget20DTrashManagerPrivateE@Base 2.0.11
 _ZTVN3Dtk6Widget20DWindowManagerHelperE@Base 2.0.11
 _ZTVN3Dtk6Widget21DDoubleSpinBoxPrivateE@Base 2.0.11
 _ZTVN3Dtk6Widget21DForeignWindowPrivateE@Base 2.0.11
 _ZTVN3Dtk6Widget21DPageIndicatorPrivateE@Base 2.0.11
 _ZTVN3Dtk6Widget21DPlatformWindowHandleE@Base 2.0.11
 _ZTVN3Dtk6Widget21DRegionMonitorPrivateE@Base 2.0.11
 _ZTVN3Dtk6Widget21DWaterProgressPrivateE@Base 2.0.11
 _ZTVN3Dtk6Widget21DWindowManagerHelper_E@Base 2.0.11
 _ZTVN3Dtk6Widget22DAbstractDialogPrivateE@Base 2.0.11
 _ZTVN3Dtk6Widget22DArrowRectanglePrivateE@Base 2.0.11
 _ZTVN3Dtk6Widget22DCircleProgressPrivateE@Base 2.0.11
 _ZTVN3Dtk6Widget22DSettingsWidgetFactoryE@Base 2.0.11
 _ZTVN3Dtk6Widget22DSimpleListViewPrivateE@Base 2.0.11
 _ZTVN3Dtk6Widget23DFileChooserEditPrivateE@Base 2.0.11
 _ZTVN3Dtk6Widget23DWindowMaxButtonPrivateE@Base 2.0.11
 _ZTVN3Dtk6Widget24DBlurEffectWidgetPrivateE@Base 2.0.11
 _ZTVN3Dtk6Widget24DBorderlessWidgetPrivateE@Base 2.0.11
 _ZTVN3Dtk6Widget24DBorderlessWindowPrivateE@Base 2.0.11
 _ZTVN3Dtk6Widget24DClipEffectWidgetPrivateE@Base 2.0.11
 _ZTVN3Dtk6Widget24DFileIconProviderPrivateE@Base 2.0.11
 _ZTVN3Dtk6Widget24DLoadingIndicatorPrivateE@Base 2.0.11
 _ZTVN3Dtk6Widget24DSegmentedControlPrivateE@Base 2.0.11
 _ZTVN3Dtk6Widget25DStyleOptionSuggestButtonE@Base 2.0.11
 _ZTVN3Dtk6Widget25DThumbnailProviderPrivateE@Base 2.0.11
 _ZTVN3Dtk6Widget26DGraphicsClipEffectPrivateE@Base 2.0.11
 _ZTVN3Dtk6Widget26DPasswdEditAnimatedPrivateE@Base 2.0.11
 _ZTVN3Dtk6Widget26DThemeManagerStaticPrivateE@Base 2.0.11
 _ZTVN3Dtk6Widget27DPictureSequenceViewPrivateE@Base 2.0.11
 _ZTVN3Dtk6Widget27DSlideStackWidgetTransitionE@Base 2.0.11
 _ZTVN3Dtk6Widget27DWindowManagerHelperPrivateE@Base 2.0.11
 _ZTVN3Dtk6Widget29DFileThumbnailProviderPrivateE@Base 2.0.11
 _ZTVN3Dtk6Widget30DAbstractStackWidgetTransitionE@Base 2.0.11
 _ZTVN3Dtk6Widget37DAbstractStackWidgetTransitionPrivateE@Base 2.0.11
 _ZTVN3Dtk6Widget6DLabelE@Base 2.0.11
 _ZTVN3Dtk6Widget6DToastE@Base 2.0.11
 _ZTVN3Dtk6Widget7ContentE@Base 2.0.11
 _ZTVN3Dtk6Widget7DDialogE@Base 2.0.11
 _ZTVN3Dtk6Widget7DOptionE@Base 2.0.11
 _ZTVN3Dtk6Widget7DSliderE@Base 2.0.11
 _ZTVN3Dtk6Widget7DTabBarE@Base 2.0.11
 _ZTVN3Dtk6Widget8DSpinBoxE@Base 2.0.11
 _ZTVN3Dtk6Widget8DSpinnerE@Base 2.0.11
 _ZTVN3Dtk6Widget9DBaseLineE@Base 2.0.11
 _ZTVN3Dtk6Widget9DLineEditE@Base 2.0.11
 _ZTVN3Dtk6Widget9DListViewE@Base 2.0.11
 _ZTVN3Dtk6Widget9DTextEditE@Base 2.0.11
 _ZTVN3Dtk6Widget9DTitlebarE@Base 2.0.11
 (optional=templinst)_ZZN11QMetaTypeIdI12QDBusMessageE14qt_metatype_idEvE11metatype_id@Base 2.0.11
 (optional=templinst)_ZZN11QMetaTypeIdI12QPainterPathE14qt_metatype_idEvE11metatype_id@Base 2.0.11
 (optional=templinst)_ZZN11QMetaTypeIdI13QDBusArgumentE14qt_metatype_idEvE11metatype_id@Base 2.0.11
 (optional=templinst)_ZZN11QMetaTypeIdI15QDBusObjectPathE14qt_metatype_idEvE11metatype_id@Base 2.0.11
 (optional=templinst)_ZZN11QMetaTypeIdI5QListI12QPainterPathEE14qt_metatype_idEvE11metatype_id@Base 2.0.11
 (optional=templinst)_ZZN11QMetaTypeIdI5QListI5QIconEE14qt_metatype_idEvE11metatype_id@Base 2.0.11
 (optional=templinst)_ZZN11QMetaTypeIdI5QListI7QRegExpEE14qt_metatype_idEvE11metatype_id@Base 2.0.11
 (optional=templinst)_ZZN11QMetaTypeIdI5QListIP7QWidgetEE14qt_metatype_idEvE11metatype_id@Base 2.0.11
 (optional=templinst)_ZZN11QMetaTypeIdI5QListIPN3Dtk6Widget15DSimpleListItemEEE14qt_metatype_idEvE11metatype_id@Base 2.0.11
 (optional=templinst)_ZZN11QMetaTypeIdI5QListIbEE14qt_metatype_idEvE11metatype_id@Base 2.0.11
 (optional=templinst)_ZZN11QMetaTypeIdI7QVectorIjEE14qt_metatype_idEvE11metatype_id@Base 2.0.11
 (optional=templinst)_ZZN11QMetaTypeIdI8QMarginsE14qt_metatype_idEvE11metatype_id@Base 2.0.11
 (optional=templinst)_ZZN11QMetaTypeIdIN17QtMetaTypePrivate23QSequentialIterableImplEE14qt_metatype_idEvE11metatype_id@Base 2.0.11
 (optional=templinst)_ZZN11QMetaTypeIdIN17QtMetaTypePrivate24QAssociativeIterableImplEE14qt_metatype_idEvE11metatype_id@Base 2.0.11
 (optional=templinst)_ZZN18QMetaTypeIdQObjectIN2Qt10DropActionELi16EE14qt_metatype_idEvE11metatype_id@Base 2.0.11
 (optional=templinst)_ZZN18QMetaTypeIdQObjectIP7QWidgetLi8EE14qt_metatype_idEvE11metatype_id@Base 2.0.11
 (optional=templinst)_ZZN18QMetaTypeIdQObjectIPN3Dtk4Core9DSettingsELi8EE14qt_metatype_idEvE11metatype_id@Base 2.0.11
 (optional=templinst)_ZZN18QMetaTypeIdQObjectIPN3Dtk6Widget12DAnchorsBaseELi8EE14qt_metatype_idEvE11metatype_id@Base 2.0.11
 (optional=templinst)_ZZN18QMetaTypeIdQObjectIPN3Dtk6Widget15DSimpleListItemELi8EE14qt_metatype_idEvE11metatype_id@Base 2.0.11
 _ZZN3Dtk6Widget20DThemeManagerPrivate14registerWidgetEP7QWidgetRK7QStringRK11QStringListENKUlS3_S6_S6_E_clES3_S6_S6_@Base 2.0.11
 (optional=templinst)_ZZN9QtPrivate19ValueTypeIsMetaTypeI5QListI12QPainterPathELb1EE17registerConverterEiE1f@Base 2.0.11
 (optional=templinst)_ZZN9QtPrivate19ValueTypeIsMetaTypeI5QListI5QIconELb1EE17registerConverterEiE1f@Base 2.0.11
 (optional=templinst)_ZZN9QtPrivate19ValueTypeIsMetaTypeI5QListI7QRegExpELb1EE17registerConverterEiE1f@Base 2.0.11
 (optional=templinst)_ZZN9QtPrivate19ValueTypeIsMetaTypeI5QListIP7QWidgetELb1EE17registerConverterEiE1f@Base 2.0.11
 (optional=templinst)_ZZN9QtPrivate19ValueTypeIsMetaTypeI5QListIPN3Dtk6Widget15DSimpleListItemEELb1EE17registerConverterEiE1f@Base 2.0.11
 (optional=templinst)_ZZN9QtPrivate19ValueTypeIsMetaTypeI5QListIbELb1EE17registerConverterEiE1f@Base 2.0.11
 (optional=templinst)_ZZN9QtPrivate19ValueTypeIsMetaTypeI7QVectorIjELb1EE17registerConverterEiE1f@Base 2.0.11
 _ZZZN13DBusInterface11ReleaseNameERK7QStringENKUlvE_clEvE15qstring_literal@Base 2.0.11
 _ZZZN13DBusInterface11RemoveMatchERK7QStringENKUlvE_clEvE15qstring_literal@Base 2.0.11
 _ZZZN13DBusInterface11RequestNameERK7QStringjENKUlvE_clEvE15qstring_literal@Base 2.0.11
 _ZZZN13DBusInterface12GetNameOwnerERK7QStringENKUlvE_clEvE15qstring_literal@Base 2.0.11
 _ZZZN13DBusInterface12NameHasOwnerERK7QStringENKUlvE_clEvE15qstring_literal@Base 2.0.11
 _ZZZN13DBusInterface12ReloadConfigEvENKUlvE_clEvE15qstring_literal@Base 2.0.11
 _ZZZN13DBusInterface16ListQueuedOwnersERK7QStringENKUlvE_clEvE15qstring_literal@Base 2.0.11
 _ZZZN13DBusInterface18StartServiceByNameERK7QStringjENKUlvE_clEvE15qstring_literal@Base 2.0.11
 _ZZZN13DBusInterface20ListActivatableNamesEvENKUlvE_clEvE15qstring_literal@Base 2.0.11
 _ZZZN13DBusInterface21GetConnectionUnixUserERK7QStringENKUlvE_clEvE15qstring_literal@Base 2.0.11
 _ZZZN13DBusInterface22GetAdtAuditSessionDataERK7QStringENKUlvE_clEvE15qstring_literal@Base 2.0.11
 _ZZZN13DBusInterface26GetConnectionUnixProcessIDERK7QStringENKUlvE_clEvE15qstring_literal@Base 2.0.11
 _ZZZN13DBusInterface35GetConnectionSELinuxSecurityContextERK7QStringENKUlvE_clEvE15qstring_literal@Base 2.0.11
 _ZZZN13DBusInterface5GetIdEvENKUlvE_clEvE15qstring_literal@Base 2.0.11
 _ZZZN13DBusInterface5HelloEvENKUlvE_clEvE15qstring_literal@Base 2.0.11
 _ZZZN13DBusInterface8AddMatchERK7QStringENKUlvE_clEvE15qstring_literal@Base 2.0.11
 _ZZZN13DBusInterface9ListNamesEvENKUlvE_clEvE15qstring_literal@Base 2.0.11
 _ZZZN15__XEventMonitor12RegisterAreaEiiiiiENKUlvE_clEvE15qstring_literal@Base 2.0.11
 _ZZZN15__XEventMonitor14UnregisterAreaERK7QStringENKUlvE_clEvE15qstring_literal@Base 2.0.11
 _ZZZN15__XEventMonitor18RegisterFullScreenEvENKUlvE_clEvE15qstring_literal@Base 2.0.11
 _ZZZN9DBusMPRIS11SetPositionERK15QDBusObjectPathxENKUlvE_clEvE15qstring_literal@Base 2.0.11
 _ZZZN9DBusMPRIS4NextEvENKUlvE_clEvE15qstring_literal@Base 2.0.11
 _ZZZN9DBusMPRIS4PlayEvENKUlvE_clEvE15qstring_literal@Base 2.0.11
 _ZZZN9DBusMPRIS4SeekExENKUlvE_clEvE15qstring_literal@Base 2.0.11
 _ZZZN9DBusMPRIS4StopEvENKUlvE_clEvE15qstring_literal@Base 2.0.11
 _ZZZN9DBusMPRIS5PauseEvENKUlvE_clEvE15qstring_literal@Base 2.0.11
 _ZZZN9DBusMPRIS7OpenUriERK7QStringENKUlvE_clEvE15qstring_literal@Base 2.0.11
 _ZZZN9DBusMPRIS8PreviousEvENKUlvE_clEvE15qstring_literal@Base 2.0.11
 _ZZZN9DBusMPRIS9PlayPauseEvENKUlvE_clEvE15qstring_literal@Base 2.0.11
 _Zls6QDebugRKN3Dtk6Widget21DPlatformWindowHandle10WMBlurAreaE@Base 2.0.11
 (c++)"non-virtual thunk to ButtonGroup::~ButtonGroup()@Base" 2.0.11
 (c++)"non-virtual thunk to ComboBox::~ComboBox()@Base" 2.0.11
 (c++)"non-virtual thunk to ContentTitle::~ContentTitle()@Base" 2.0.11
 (c++)"non-virtual thunk to Dtk::Widget::ArrowButtonIcon::~ArrowButtonIcon()@Base" 2.0.11
 (c++)"non-virtual thunk to Dtk::Widget::ArrowHeaderLine::~ArrowHeaderLine()@Base" 2.0.11
 (c++)"non-virtual thunk to Dtk::Widget::Content::~Content()@Base" 2.0.11
 (c++)"non-virtual thunk to Dtk::Widget::ContentLoader::~ContentLoader()@Base" 2.0.11
 (c++)"non-virtual thunk to Dtk::Widget::CrumbObjectInterface::drawObject(QPainter*, QRectF const&, QTextDocument*, int, QTextFormat const&)@Base" 2.0.11
 (c++)"non-virtual thunk to Dtk::Widget::CrumbObjectInterface::intrinsicSize(QTextDocument*, int, QTextFormat const&)@Base" 2.0.11
 (c++)"non-virtual thunk to Dtk::Widget::CrumbObjectInterface::~CrumbObjectInterface()@Base" 2.0.11
 (c++)"non-virtual thunk to Dtk::Widget::DAboutDialog::~DAboutDialog()@Base" 2.0.11
 (c++)"non-virtual thunk to Dtk::Widget::DAbstractDialog::~DAbstractDialog()@Base" 2.0.11
 (c++)"non-virtual thunk to Dtk::Widget::DApplication::~DApplication()@Base" 2.0.11
 (c++)"non-virtual thunk to Dtk::Widget::DArrowButton::~DArrowButton()@Base" 2.0.11
 (c++)"non-virtual thunk to Dtk::Widget::DArrowLineExpand::~DArrowLineExpand()@Base" 2.0.11
 (c++)"non-virtual thunk to Dtk::Widget::DArrowRectangle::~DArrowRectangle()@Base" 2.0.11
 (c++)"non-virtual thunk to Dtk::Widget::DBaseButton::~DBaseButton()@Base" 2.0.11
 (c++)"non-virtual thunk to Dtk::Widget::DBaseExpand::~DBaseExpand()@Base" 2.0.11
 (c++)"non-virtual thunk to Dtk::Widget::DBaseLine::~DBaseLine()@Base" 2.0.11
 (c++)"non-virtual thunk to Dtk::Widget::DBlurEffectWidget::~DBlurEffectWidget()@Base" 2.0.11
 (c++)"non-virtual thunk to Dtk::Widget::DBorderlessWidget::~DBorderlessWidget()@Base" 2.0.11
 (c++)"non-virtual thunk to Dtk::Widget::DBorderlessWindow::~DBorderlessWindow()@Base" 2.0.11
 (c++)"non-virtual thunk to Dtk::Widget::DBoxWidget::~DBoxWidget()@Base" 2.0.11
 (c++)"non-virtual thunk to Dtk::Widget::DButtonList::~DButtonList()@Base" 2.0.11
 (c++)"non-virtual thunk to Dtk::Widget::DCircleProgress::~DCircleProgress()@Base" 2.0.11
 (c++)"non-virtual thunk to Dtk::Widget::DClipEffectWidget::~DClipEffectWidget()@Base" 2.0.11
 (c++)"non-virtual thunk to Dtk::Widget::DCrumbEdit::~DCrumbEdit()@Base" 2.0.11
 (c++)"non-virtual thunk to Dtk::Widget::DDialog::~DDialog()@Base" 2.0.11
 (c++)"non-virtual thunk to Dtk::Widget::DDoubleSpinBox::~DDoubleSpinBox()@Base" 2.0.11
 (c++)"non-virtual thunk to Dtk::Widget::DFileChooserEdit::~DFileChooserEdit()@Base" 2.0.11
 (c++)"non-virtual thunk to Dtk::Widget::DFileDialog::~DFileDialog()@Base" 2.0.11
 (c++)"non-virtual thunk to Dtk::Widget::DFileIconProvider::~DFileIconProvider()@Base" 2.0.11
 (c++)"non-virtual thunk to Dtk::Widget::DFileThumbnailProviderPrivate::~DFileThumbnailProviderPrivate()@Base" 2.0.11
 (c++)"non-virtual thunk to Dtk::Widget::DFlowLayout::expandingDirections() const@Base" 2.0.11
 (c++)"non-virtual thunk to Dtk::Widget::DFlowLayout::hasHeightForWidth() const@Base" 2.0.11
 (c++)"non-virtual thunk to Dtk::Widget::DFlowLayout::heightForWidth(int) const@Base" 2.0.11
 (c++)"non-virtual thunk to Dtk::Widget::DFlowLayout::minimumSize() const@Base" 2.0.11
 (c++)"non-virtual thunk to Dtk::Widget::DFlowLayout::setGeometry(QRect const&)@Base" 2.0.11
 (c++)"non-virtual thunk to Dtk::Widget::DFlowLayout::sizeHint() const@Base" 2.0.11
 (c++)"non-virtual thunk to Dtk::Widget::DFlowLayout::~DFlowLayout()@Base" 2.0.11
 (c++)"non-virtual thunk to Dtk::Widget::DForeignWindow::~DForeignWindow()@Base" 2.0.11
 (c++)"non-virtual thunk to Dtk::Widget::DGraphicsClipEffect::~DGraphicsClipEffect()@Base" 2.0.11
 (c++)"non-virtual thunk to Dtk::Widget::DHBoxWidget::~DHBoxWidget()@Base" 2.0.11
 (c++)"non-virtual thunk to Dtk::Widget::DHeaderLine::~DHeaderLine()@Base" 2.0.11
 (c++)"non-virtual thunk to Dtk::Widget::DIconButton::~DIconButton()@Base" 2.0.11
 (c++)"non-virtual thunk to Dtk::Widget::DImageButton::~DImageButton()@Base" 2.0.11
 (c++)"non-virtual thunk to Dtk::Widget::DInputDialog::~DInputDialog()@Base" 2.0.11
 (c++)"non-virtual thunk to Dtk::Widget::DIpv4LineEdit::~DIpv4LineEdit()@Base" 2.0.11
 (c++)"non-virtual thunk to Dtk::Widget::DLabel::~DLabel()@Base" 2.0.11
 (c++)"non-virtual thunk to Dtk::Widget::DLineEdit::~DLineEdit()@Base" 2.0.11
 (c++)"non-virtual thunk to Dtk::Widget::DLinkButton::~DLinkButton()@Base" 2.0.11
 (c++)"non-virtual thunk to Dtk::Widget::DListView::~DListView()@Base" 2.0.11
 (c++)"non-virtual thunk to Dtk::Widget::DListWidget::~DListWidget()@Base" 2.0.11
 (c++)"non-virtual thunk to Dtk::Widget::DLoadingIndicator::~DLoadingIndicator()@Base" 2.0.11
 (c++)"non-virtual thunk to Dtk::Widget::DMPRISControl::~DMPRISControl()@Base" 2.0.11
 (c++)"non-virtual thunk to Dtk::Widget::DMainWindow::~DMainWindow()@Base" 2.0.11
 (c++)"non-virtual thunk to Dtk::Widget::DMovableTabWidget::~DMovableTabWidget()@Base" 2.0.11
 (c++)"non-virtual thunk to Dtk::Widget::DOption::~DOption()@Base" 2.0.11
 (c++)"non-virtual thunk to Dtk::Widget::DOptionList::~DOptionList()@Base" 2.0.11
 (c++)"non-virtual thunk to Dtk::Widget::DPageIndicator::~DPageIndicator()@Base" 2.0.11
 (c++)"non-virtual thunk to Dtk::Widget::DPasswdEditAnimated::~DPasswdEditAnimated()@Base" 2.0.11
 (c++)"non-virtual thunk to Dtk::Widget::DPasswordEdit::~DPasswordEdit()@Base" 2.0.11
 (c++)"non-virtual thunk to Dtk::Widget::DPictureSequenceView::~DPictureSequenceView()@Base" 2.0.11
 (c++)"non-virtual thunk to Dtk::Widget::DPushButton::~DPushButton()@Base" 2.0.11
 (c++)"non-virtual thunk to Dtk::Widget::DRegionMonitor::~DRegionMonitor()@Base" 2.0.11
 (c++)"non-virtual thunk to Dtk::Widget::DScrollArea::~DScrollArea()@Base" 2.0.11
 (c++)"non-virtual thunk to Dtk::Widget::DScrollBar::~DScrollBar()@Base" 2.0.11
 (c++)"non-virtual thunk to Dtk::Widget::DSearchEdit::~DSearchEdit()@Base" 2.0.11
 (c++)"non-virtual thunk to Dtk::Widget::DSegmentedControl::~DSegmentedControl()@Base" 2.0.11
 (c++)"non-virtual thunk to Dtk::Widget::DSegmentedHighlight::~DSegmentedHighlight()@Base" 2.0.11
 (c++)"non-virtual thunk to Dtk::Widget::DSeparatorHorizontal::~DSeparatorHorizontal()@Base" 2.0.11
 (c++)"non-virtual thunk to Dtk::Widget::DSeparatorVertical::~DSeparatorVertical()@Base" 2.0.11
 (c++)"non-virtual thunk to Dtk::Widget::DSettingsDialog::~DSettingsDialog()@Base" 2.0.11
 (c++)"non-virtual thunk to Dtk::Widget::DShortcutEdit::~DShortcutEdit()@Base" 2.0.11
 (c++)"non-virtual thunk to Dtk::Widget::DShortcutEditLabel::~DShortcutEditLabel()@Base" 2.0.11
 (c++)"non-virtual thunk to Dtk::Widget::DSimpleListView::~DSimpleListView()@Base" 2.0.11
 (c++)"non-virtual thunk to Dtk::Widget::DSlideStackWidgetTransition::~DSlideStackWidgetTransition()@Base" 2.0.11
 (c++)"non-virtual thunk to Dtk::Widget::DSlider::~DSlider()@Base" 2.0.11
 (c++)"non-virtual thunk to Dtk::Widget::DSpinBox::~DSpinBox()@Base" 2.0.11
 (c++)"non-virtual thunk to Dtk::Widget::DSpinner::~DSpinner()@Base" 2.0.11
 (c++)"non-virtual thunk to Dtk::Widget::DStackWidget::~DStackWidget()@Base" 2.0.11
 (c++)"non-virtual thunk to Dtk::Widget::DSuggestButton::~DSuggestButton()@Base" 2.0.11
 (c++)"non-virtual thunk to Dtk::Widget::DSvgRenderer::~DSvgRenderer()@Base" 2.0.11
 (c++)"non-virtual thunk to Dtk::Widget::DSwitchButton::~DSwitchButton()@Base" 2.0.11
 (c++)"non-virtual thunk to Dtk::Widget::DSwitchHeaderLine::~DSwitchHeaderLine()@Base" 2.0.11
 (c++)"non-virtual thunk to Dtk::Widget::DSwitchLineExpand::~DSwitchLineExpand()@Base" 2.0.11
 (c++)"non-virtual thunk to Dtk::Widget::DTabBar::~DTabBar()@Base" 2.0.11
 (c++)"non-virtual thunk to Dtk::Widget::DTabBarAddButton::~DTabBarAddButton()@Base" 2.0.11
 (c++)"non-virtual thunk to Dtk::Widget::DTabBarPrivate::FullWidget::~FullWidget()@Base" 2.0.11
 (c++)"non-virtual thunk to Dtk::Widget::DTabBarPrivate::~DTabBarPrivate()@Base" 2.0.11
 (c++)"non-virtual thunk to Dtk::Widget::DTextButton::~DTextButton()@Base" 2.0.11
 (c++)"non-virtual thunk to Dtk::Widget::DTextEdit::~DTextEdit()@Base" 2.0.11
 (c++)"non-virtual thunk to Dtk::Widget::DThemeManager::~DThemeManager()@Base" 2.0.11
 (c++)"non-virtual thunk to Dtk::Widget::DThemeManagerStaticPrivate::~DThemeManagerStaticPrivate()@Base" 2.0.11
 (c++)"non-virtual thunk to Dtk::Widget::DThumbnailProvider::~DThumbnailProvider()@Base" 2.0.11
 (c++)"non-virtual thunk to Dtk::Widget::DTickEffect::~DTickEffect()@Base" 2.0.11
 (c++)"non-virtual thunk to Dtk::Widget::DTitlebar::~DTitlebar()@Base" 2.0.11
 (c++)"non-virtual thunk to Dtk::Widget::DToast::~DToast()@Base" 2.0.11
 (c++)"non-virtual thunk to Dtk::Widget::DTrashManager::~DTrashManager()@Base" 2.0.11
 (c++)"non-virtual thunk to Dtk::Widget::DTrashManager_::~DTrashManager_()@Base" 2.0.11
 (c++)"non-virtual thunk to Dtk::Widget::DVBoxWidget::~DVBoxWidget()@Base" 2.0.11
 (c++)"non-virtual thunk to Dtk::Widget::DVideoWidget::~DVideoWidget()@Base" 2.0.11
 (c++)"non-virtual thunk to Dtk::Widget::DWaterProgress::~DWaterProgress()@Base" 2.0.11
 (c++)"non-virtual thunk to Dtk::Widget::DWindowCloseButton::~DWindowCloseButton()@Base" 2.0.11
 (c++)"non-virtual thunk to Dtk::Widget::DWindowManagerHelper::~DWindowManagerHelper()@Base" 2.0.11
 (c++)"non-virtual thunk to Dtk::Widget::DWindowManagerHelper_::~DWindowManagerHelper_()@Base" 2.0.11
 (c++)"non-virtual thunk to Dtk::Widget::DWindowMaxButton::~DWindowMaxButton()@Base" 2.0.11
 (c++)"non-virtual thunk to Dtk::Widget::DWindowMinButton::~DWindowMinButton()@Base" 2.0.11
 (c++)"non-virtual thunk to Dtk::Widget::DWindowOptionButton::~DWindowOptionButton()@Base" 2.0.11
 (c++)"non-virtual thunk to Dtk::Widget::DialogButton::~DialogButton()@Base" 2.0.11
 (c++)"non-virtual thunk to Dtk::Widget::LoadSlider::~LoadSlider()@Base" 2.0.11
 (c++)"non-virtual thunk to Dtk::Widget::Navigation::~Navigation()@Base" 2.0.11
 (c++)"non-virtual thunk to QWindow::size() const@Base" 2.0.11
 (c++)"non-virtual thunk to QtConcurrent::RunFunctionTask<bool>::run()@Base" 2.0.11
 (c++)"non-virtual thunk to QtConcurrent::RunFunctionTask<void>::run()@Base" 2.0.11
 (c++)"non-virtual thunk to QtConcurrent::RunFunctionTaskBase<bool>::run()@Base" 2.0.11
 (c++)"non-virtual thunk to QtConcurrent::RunFunctionTaskBase<void>::run()@Base" 2.0.11
 (c++)"non-virtual thunk to QtConcurrent::StoredMemberFunctionPointerCall0<bool, QSystemSemaphore>::~StoredMemberFunctionPointerCall0()@Base" 2.0.11
 (c++)"non-virtual thunk to ShortcutEdit::~ShortcutEdit()@Base" 2.0.11
 (c++)"non-virtual thunk to StartupNotificationMonitor::nativeEventFilter(QByteArray const&, void*, long*)@Base" 2.0.11
 (c++)"non-virtual thunk to StartupNotificationMonitor::~StartupNotificationMonitor()@Base" 2.0.11
 (c++)"non-virtual thunk to StartupNotificationMonitorSub::~StartupNotificationMonitorSub()@Base" 2.0.11
